(dp1
S'output'
p2
S"<type 'exceptions.KeyError'> 'start'"
p3
sS'layer'
p4
S'/home/tazjel/zweb2py/applications/belot/views/game/_deal_btn.html'
p5
sS'code'
p6
S'if any(btn.values()):\n    response.write(\'\\n\\n\\n\', escape=False)\n    if btn[\'sun\']:\n        response.write(\'<button id="joingame" class="btn btn-default">\\xd8\\xb5\\xd9\\x86</button>\', escape=False)\n        pass\n    response.write(\'\\n\', escape=False)\n    if btn[\'trump\']:\n        response.write(\'<button id="leavegame" class="btn btn-default">\\xd8\\xad\\xd9\\x83\\xd9\\x85</button>\', escape=False)\n        pass\n    response.write(\'\\n\', escape=False)\n    if btn[\'pass\']:\n        response.write(\'<button id="startgame" class="btn btn-default">\\xd8\\xa8\\xd8\\xb3</button>\', escape=False)\n        pass\n    response.write(\'\\n\', escape=False)\n    if btn[\'start\']:\n        response.write(\'<button id="startgame" class="btn btn-default">\\xd9\\x88\\xd9\\x84\\xd8\\xa7</button>\', escape=False)\n        pass\n    response.write(\'\\n\\n\\n<hr>\\n\\n<script type="text/javascript">\\n    $(document).ready(function () {\\n        $("#joingame").on("click", function () {\\n            $.ajax({\\n                type:"POST",\\n                url:"\', escape=False)\n    response.write(URL("game","joingame.json"))\n    response.write(\'",\\n                data:{id:\', escape=False)\n    response.write(game.id)\n    response.write(\'},\\n                async:false,\\n                success:location.reload(true)\\n            })\\n        });\\n        \\n        $("#leavegame").on("click", function () {\\n            $.ajax({\\n                type:"POST",\\n                url:"\', escape=False)\n    response.write(URL("game","leavegame.json"))\n    response.write(\'",\\n                data:{id:\', escape=False)\n    response.write(game.id)\n    response.write(\'},\\n                async:false,\\n                success:location.reload(true)\\n            })\\n        });\\n        \\n        $("#startgame").on("click", function () {\\n            $.ajax({\\n                type:"POST",\\n                url:"\', escape=False)\n    response.write(URL("game","startgame.json"))\n    response.write(\'",\\n                data:{id:\', escape=False)\n    response.write(game.id)\n    response.write(\'},\\n                async:false,\\n                success:location.reload(true)\\n            })\\n        });\\n        \\n        $("#deletegame").on("click", function () {\\n            $.ajax({\\n                type:"POST",\\n                url:"\', escape=False)\n    response.write(URL("game","deletegame.json"))\n    response.write(\'",\\n                data:{id:\', escape=False)\n    response.write(game.id)\n    response.write(\'},\\n                async:false,\\n                success:function () {\\n                    window.location.href = "\', escape=False)\n    response.write(URL("game","current"))\n    response.write(\'"\\n                }\\n            })\\n        });\\n    });\\n</script>\\n\', escape=False)\n    pass\nresponse.write(\'\\n\', escape=False)'
p7
sS'snapshot'
p8
(dp9
S'exception'
p10
(dp11
S'__hash__'
p12
S"<method-wrapper '__hash__' of exceptions.KeyError object>"
p13
sS'__setattr__'
p14
S"<method-wrapper '__setattr__' of exceptions.KeyError object>"
p15
sS'__reduce_ex__'
p16
S'<built-in method __reduce_ex__ of exceptions.KeyError object>'
p17
sS'__getslice__'
p18
S"<method-wrapper '__getslice__' of exceptions.KeyError object>"
p19
sS'__getitem__'
p20
S"<method-wrapper '__getitem__' of exceptions.KeyError object>"
p21
sS'__setstate__'
p22
S'<built-in method __setstate__ of exceptions.KeyError object>'
p23
sS'args'
p24
S"('start',)"
p25
sS'__reduce__'
p26
S'<built-in method __reduce__ of exceptions.KeyError object>'
p27
sS'__str__'
p28
S"<method-wrapper '__str__' of exceptions.KeyError object>"
p29
sS'__format__'
p30
S'<built-in method __format__ of exceptions.KeyError object>'
p31
sS'__getattribute__'
p32
S"<method-wrapper '__getattribute__' of exceptions.KeyError object>"
p33
sS'__class__'
p34
S"<type 'exceptions.KeyError'>"
p35
sS'__unicode__'
p36
S'<built-in method __unicode__ of exceptions.KeyError object>'
p37
sS'__delattr__'
p38
S"<method-wrapper '__delattr__' of exceptions.KeyError object>"
p39
sS'__subclasshook__'
p40
S'<built-in method __subclasshook__ of type object>'
p41
sS'__repr__'
p42
S"<method-wrapper '__repr__' of exceptions.KeyError object>"
p43
sS'__dict__'
p44
S'{}'
p45
sS'__sizeof__'
p46
S'<built-in method __sizeof__ of exceptions.KeyError object>'
p47
sS'__doc__'
p48
S"'Mapping key not found.'"
p49
sS'__init__'
p50
S"<method-wrapper '__init__' of exceptions.KeyError object>"
p51
sS'__new__'
p52
S'<built-in method __new__ of type object>'
p53
ssS'evalue'
p54
S"'start'"
p55
sS'request'
p56
cgluon.html
XML_unpickle
p57
(S's\x9e{\x00\x00<div><table><tr><td style="font-weight:bold;vertical-align:top;">ajax</td><td style="vertical-align:top;">:</td><td><div>False</div></td></tr><tr><td style="font-weight:bold;vertical-align:top;">application</td><td style="vertical-align:top;">:</td><td><div>belot</div></td></tr><tr><td style="font-weight:bold;vertical-align:top;">args</td><td style="vertical-align:top;">:</td><td><div><table><tr><td><div>14L</div></td></tr></table></div></td></tr><tr><td style="font-weight:bold;vertical-align:top;">cid</td><td style="vertical-align:top;">:</td><td><div>c348210703735</div></td></tr><tr><td style="font-weight:bold;vertical-align:top;">client</td><td style="vertical-align:top;">:</td><td><div>129.208.2.129</div></td></tr><tr><td style="font-weight:bold;vertical-align:top;">controller</td><td style="vertical-align:top;">:</td><td><div>game</div></td></tr><tr><td style="font-weight:bold;vertical-align:top;">cookies</td><td style="vertical-align:top;">:</td><td><div><table><tr><td style="font-weight:bold;vertical-align:top;">session_id_admin</td><td style="vertical-align:top;">:</td><td><div>129.208.2.129-c94a9569-d2d2-486b-9dfd-f2992af75c6f<table><tr><td style="font-weight:bold;vertical-align:top;">comment</td><td style="vertical-align:top;">:</td><td><div></div></td></tr><tr><td style="font-weight:bold;vertical-align:top;">domain</td><td style="vertical-align:top;">:</td><td><div></div></td></tr><tr><td style="font-weight:bold;vertical-align:top;">expires</td><td style="vertical-align:top;">:</td><td><div></div></td></tr><tr><td style="font-weight:bold;vertical-align:top;">httponly</td><td style="vertical-align:top;">:</td><td><div></div></td></tr><tr><td style="font-weight:bold;vertical-align:top;">max-age</td><td style="vertical-align:top;">:</td><td><div></div></td></tr><tr><td style="font-weight:bold;vertical-align:top;">path</td><td style="vertical-align:top;">:</td><td><div></div></td></tr><tr><td style="font-weight:bold;vertical-align:top;">secure</td><td style="vertical-align:top;">:</td><td><div></div></td></tr><tr><td style="font-weight:bold;vertical-align:top;">version</td><td style="vertical-align:top;">:</td><td><div></div></td></tr></table></div></td></tr><tr><td style="font-weight:bold;vertical-align:top;">session_id_belot</td><td style="vertical-align:top;">:</td><td><div>129.208.2.129-645f4e60-97c1-4325-a170-5a58f3b14569<table><tr><td style="font-weight:bold;vertical-align:top;">comment</td><td style="vertical-align:top;">:</td><td><div></div></td></tr><tr><td style="font-weight:bold;vertical-align:top;">domain</td><td style="vertical-align:top;">:</td><td><div></div></td></tr><tr><td style="font-weight:bold;vertical-align:top;">expires</td><td style="vertical-align:top;">:</td><td><div></div></td></tr><tr><td style="font-weight:bold;vertical-align:top;">httponly</td><td style="vertical-align:top;">:</td><td><div></div></td></tr><tr><td style="font-weight:bold;vertical-align:top;">max-age</td><td style="vertical-align:top;">:</td><td><div></div></td></tr><tr><td style="font-weight:bold;vertical-align:top;">path</td><td style="vertical-align:top;">:</td><td><div></div></td></tr><tr><td style="font-weight:bold;vertical-align:top;">secure</td><td style="vertical-align:top;">:</td><td><div></div></td></tr><tr><td style="font-weight:bold;vertical-align:top;">version</td><td style="vertical-align:top;">:</td><td><div></div></td></tr></table></div></td></tr><tr><td style="font-weight:bold;vertical-align:top;">session_id_welcome</td><td style="vertical-align:top;">:</td><td><div>129.208.2.129-db329134-178f-408a-bb60-90e594f20d92<table><tr><td style="font-weight:bold;vertical-align:top;">comment</td><td style="vertical-align:top;">:</td><td><div></div></td></tr><tr><td style="font-weight:bold;vertical-align:top;">domain</td><td style="vertical-align:top;">:</td><td><div></div></td></tr><tr><td style="font-weight:bold;vertical-align:top;">expires</td><td style="vertical-align:top;">:</td><td><div></div></td></tr><tr><td style="font-weight:bold;vertical-align:top;">httponly</td><td style="vertical-align:top;">:</td><td><div></div></td></tr><tr><td style="font-weight:bold;vertical-align:top;">max-age</td><td style="vertical-align:top;">:</td><td><div></div></td></tr><tr><td style="font-weight:bold;vertical-align:top;">path</td><td style="vertical-align:top;">:</td><td><div></div></td></tr><tr><td style="font-weight:bold;vertical-align:top;">secure</td><td style="vertical-align:top;">:</td><td><div></div></td></tr><tr><td style="font-weight:bold;vertical-align:top;">version</td><td style="vertical-align:top;">:</td><td><div></div></td></tr></table></div></td></tr></table></div></td></tr><tr><td style="font-weight:bold;vertical-align:top;">env</td><td style="vertical-align:top;">:</td><td><div><table><tr><td style="font-weight:bold;vertical-align:top;">CONTENT_LENGTH</td><td style="vertical-align:top;">:</td><td><div></div></td></tr><tr><td style="font-weight:bold;vertical-align:top;">CONTENT_TYPE</td><td style="vertical-align:top;">:</td><td><div></div></td></tr><tr><td style="font-weight:bold;vertical-align:top;">DOCUMENT_ROOT</td><td style="vertical-align:top;">:</td><td><div>/usr/local/openresty/nginx/html</div></td></tr><tr><td style="font-weight:bold;vertical-align:top;">HTTPS</td><td style="vertical-align:top;">:</td><td><div>on</div></td></tr><tr><td style="font-weight:bold;vertical-align:top;">HTTP_ACCEPT</td><td style="vertical-align:top;">:</td><td><div>text/html,application/xhtml+xml,application/xml;q=0.9,*/*;q=0.8</div></td></tr><tr><td style="font-weight:bold;vertical-align:top;">HTTP_ACCEPT_ENCODING</td><td style="vertical-align:top;">:</td><td><div>gzip, deflate, br</div></td></tr><tr><td style="font-weight:bold;vertical-align:top;">HTTP_ACCEPT_LANGUAGE</td><td style="vertical-align:top;">:</td><td><div>en-US,en;q=0.5</div></td></tr><tr><td style="font-weight:bold;vertical-align:top;">HTTP_CACHE_CONTROL</td><td style="vertical-align:top;">:</td><td><div>max-age=0</div></td></tr><tr><td style="font-weight:bold;vertical-align:top;">HTTP_CONNECTION</td><td style="vertical-align:top;">:</td><td><div>close</div></td></tr><tr><td style="font-weight:bold;vertical-align:top;">HTTP_COOKIE</td><td style="vertical-align:top;">:</td><td><div>session_id_welcome=129.208.2.129-db329134-178f-408a-bb60-90e594f20d92; session_id_admin=129.208.2.129-c94a9569-d2d2-486b-9dfd-f2992af75c6f; session_id_belot=129.208.2.129-645f4e60-97c1-4325-a170-5a58f3b14569; _ga=GA1.2.66530172.1476043970</div></td></tr><tr><td style="font-weight:bold;vertical-align:top;">HTTP_HOST</td><td style="vertical-align:top;">:</td><td><div>tazjel.pythonanywhere.com</div></td></tr><tr><td style="font-weight:bold;vertical-align:top;">HTTP_REFERER</td><td style="vertical-align:top;">:</td><td><div>https://tazjel.pythonanywhere.com/belot/creategame/index</div></td></tr><tr><td style="font-weight:bold;vertical-align:top;">HTTP_UPGRADE_INSECURE_REQUESTS</td><td style="vertical-align:top;">:</td><td><div>1</div></td></tr><tr><td style="font-weight:bold;vertical-align:top;">HTTP_USER_AGENT</td><td style="vertical-align:top;">:</td><td><div>Mozilla/5.0 (X11; Ubuntu; Linux i686; rv:51.0) Gecko/20100101 Firefox/51.0</div></td></tr><tr><td style="font-weight:bold;vertical-align:top;">HTTP_X_FORWARDED_FOR</td><td style="vertical-align:top;">:</td><td><div>129.208.2.129</div></td></tr><tr><td style="font-weight:bold;vertical-align:top;">HTTP_X_REAL_IP</td><td style="vertical-align:top;">:</td><td><div>129.208.2.129</div></td></tr><tr><td style="font-weight:bold;vertical-align:top;">PATH_INFO</td><td style="vertical-align:top;">:</td><td><div>/belot/game/info/14</div></td></tr><tr><td style="font-weight:bold;vertical-align:top;">QUERY_STRING</td><td style="vertical-align:top;">:</td><td><div></div></td></tr><tr><td style="font-weight:bold;vertical-align:top;">REMOTE_ADDR</td><td style="vertical-align:top;">:</td><td><div>10.155.6.104</div></td></tr><tr><td style="font-weight:bold;vertical-align:top;">REMOTE_PORT</td><td style="vertical-align:top;">:</td><td><div>35186</div></td></tr><tr><td style="font-weight:bold;vertical-align:top;">REQUEST_METHOD</td><td style="vertical-align:top;">:</td><td><div>GET</div></td></tr><tr><td style="font-weight:bold;vertical-align:top;">REQUEST_URI</td><td style="vertical-align:top;">:</td><td><div>/belot/game/info/14</div></td></tr><tr><td style="font-weight:bold;vertical-align:top;">SCRIPT_NAME</td><td style="vertical-align:top;">:</td><td><div></div></td></tr><tr><td style="font-weight:bold;vertical-align:top;">SERVER_NAME</td><td style="vertical-align:top;">:</td><td><div>tazjel.pythonanywhere.com</div></td></tr><tr><td style="font-weight:bold;vertical-align:top;">SERVER_PORT</td><td style="vertical-align:top;">:</td><td><div>443</div></td></tr><tr><td style="font-weight:bold;vertical-align:top;">SERVER_PROTOCOL</td><td style="vertical-align:top;">:</td><td><div>HTTP/1.1</div></td></tr><tr><td style="font-weight:bold;vertical-align:top;">app_folders</td><td style="vertical-align:top;">:</td><td><div>set([&#x27;/home/tazjel/zweb2py/applications/admin/&#x27;, &#x27;/home/tazjel/zweb2py/applications/welcome/&#x27;, &#x27;/home/tazjel/zweb2py/applications/belot/&#x27;, &#x27;/home/tazjel/zweb2py/applications/examples/&#x27;])</div></td></tr><tr><td style="font-weight:bold;vertical-align:top;">applications_parent</td><td style="vertical-align:top;">:</td><td><div>/home/tazjel/zweb2py</div></td></tr><tr><td style="font-weight:bold;vertical-align:top;">content_length</td><td style="vertical-align:top;">:</td><td><div></div></td></tr><tr><td style="font-weight:bold;vertical-align:top;">content_type</td><td style="vertical-align:top;">:</td><td><div></div></td></tr><tr><td style="font-weight:bold;vertical-align:top;">db_sessions</td><td style="vertical-align:top;">:</td><td><div>set([])</div></td></tr><tr><td style="font-weight:bold;vertical-align:top;">debugging</td><td style="vertical-align:top;">:</td><td><div>True</div></td></tr><tr><td style="font-weight:bold;vertical-align:top;">document_root</td><td style="vertical-align:top;">:</td><td><div>/usr/local/openresty/nginx/html</div></td></tr><tr><td style="font-weight:bold;vertical-align:top;">gluon_parent</td><td style="vertical-align:top;">:</td><td><div>/home/tazjel/zweb2py</div></td></tr><tr><td style="font-weight:bold;vertical-align:top;">http_accept</td><td style="vertical-align:top;">:</td><td><div>text/html,application/xhtml+xml,application/xml;q=0.9,*/*;q=0.8</div></td></tr><tr><td style="font-weight:bold;vertical-align:top;">http_accept_encoding</td><td style="vertical-align:top;">:</td><td><div>gzip, deflate, br</div></td></tr><tr><td style="font-weight:bold;vertical-align:top;">http_accept_language</td><td style="vertical-align:top;">:</td><td><div>en-US,en;q=0.5</div></td></tr><tr><td style="font-weight:bold;vertical-align:top;">http_cache_control</td><td style="vertical-align:top;">:</td><td><div>max-age=0</div></td></tr><tr><td style="font-weight:bold;vertical-align:top;">http_connection</td><td style="vertical-align:top;">:</td><td><div>close</div></td></tr><tr><td style="font-weight:bold;vertical-align:top;">http_cookie</td><td style="vertical-align:top;">:</td><td><div>session_id_welcome=129.208.2.129-db329134-178f-408a-bb60-90e594f20d92; session_id_admin=129.208.2.129-c94a9569-d2d2-486b-9dfd-f2992af75c6f; session_id_belot=129.208.2.129-645f4e60-97c1-4325-a170-5a58f3b14569; _ga=GA1.2.66530172.1476043970</div></td></tr><tr><td style="font-weight:bold;vertical-align:top;">http_host</td><td style="vertical-align:top;">:</td><td><div>tazjel.pythonanywhere.com</div></td></tr><tr><td style="font-weight:bold;vertical-align:top;">http_referer</td><td style="vertical-align:top;">:</td><td><div>https://tazjel.pythonanywhere.com/belot/creategame/index</div></td></tr><tr><td style="font-weight:bold;vertical-align:top;">http_upgrade_insecure_requests</td><td style="vertical-align:top;">:</td><td><div>1</div></td></tr><tr><td style="font-weight:bold;vertical-align:top;">http_user_agent</td><td style="vertical-align:top;">:</td><td><div>Mozilla/5.0 (X11; Ubuntu; Linux i686; rv:51.0) Gecko/20100101 Firefox/51.0</div></td></tr><tr><td style="font-weight:bold;vertical-align:top;">http_web2py_component_element</td><td style="vertical-align:top;">:</td><td><div>c348210703735</div></td></tr><tr><td style="font-weight:bold;vertical-align:top;">http_web2py_component_location</td><td style="vertical-align:top;">:</td><td><div>/belot/game/info/14</div></td></tr><tr><td style="font-weight:bold;vertical-align:top;">http_x_forwarded_for</td><td style="vertical-align:top;">:</td><td><div>129.208.2.129</div></td></tr><tr><td style="font-weight:bold;vertical-align:top;">http_x_real_ip</td><td style="vertical-align:top;">:</td><td><div>129.208.2.129</div></td></tr><tr><td style="font-weight:bold;vertical-align:top;">https</td><td style="vertical-align:top;">:</td><td><div>on</div></td></tr><tr><td style="font-weight:bold;vertical-align:top;">is_jython</td><td style="vertical-align:top;">:</td><td><div>False</div></td></tr><tr><td style="font-weight:bold;vertical-align:top;">is_pypy</td><td style="vertical-align:top;">:</td><td><div>False</div></td></tr><tr><td style="font-weight:bold;vertical-align:top;">is_source</td><td style="vertical-align:top;">:</td><td><div>True</div></td></tr><tr><td style="font-weight:bold;vertical-align:top;">local_hosts</td><td style="vertical-align:top;">:</td><td><div><table><tr><td><div>tazjel.pythonanywhere.com</div></td></tr><tr><td><div>::ffff:127.0.0.1</div></td></tr><tr><td><div>::1</div></td></tr><tr><td><div>glenn-liveweb1</div></td></tr><tr><td><div>localhost</div></td></tr><tr><td><div>50.19.109.98</div></td></tr><tr><td><div>127.0.0.1</div></td></tr></table></div></td></tr><tr><td style="font-weight:bold;vertical-align:top;">path_info</td><td style="vertical-align:top;">:</td><td><div>/belot/game/_deal_btn/14</div></td></tr><tr><td style="font-weight:bold;vertical-align:top;">query_string</td><td style="vertical-align:top;">:</td><td><div></div></td></tr><tr><td style="font-weight:bold;vertical-align:top;">remote_addr</td><td style="vertical-align:top;">:</td><td><div>10.155.6.104</div></td></tr><tr><td style="font-weight:bold;vertical-align:top;">remote_port</td><td style="vertical-align:top;">:</td><td><div>35186</div></td></tr><tr><td style="font-weight:bold;vertical-align:top;">request_method</td><td style="vertical-align:top;">:</td><td><div>GET</div></td></tr><tr><td style="font-weight:bold;vertical-align:top;">request_uri</td><td style="vertical-align:top;">:</td><td><div>/belot/game/info/14</div></td></tr><tr><td style="font-weight:bold;vertical-align:top;">script_name</td><td style="vertical-align:top;">:</td><td><div></div></td></tr><tr><td style="font-weight:bold;vertical-align:top;">server_name</td><td style="vertical-align:top;">:</td><td><div>tazjel.pythonanywhere.com</div></td></tr><tr><td style="font-weight:bold;vertical-align:top;">server_port</td><td style="vertical-align:top;">:</td><td><div>443</div></td></tr><tr><td style="font-weight:bold;vertical-align:top;">server_protocol</td><td style="vertical-align:top;">:</td><td><div>HTTP/1.1</div></td></tr><tr><td style="font-weight:bold;vertical-align:top;">uwsgi.node</td><td style="vertical-align:top;">:</td><td><div>glenn-liveweb1</div></td></tr><tr><td style="font-weight:bold;vertical-align:top;">uwsgi.version</td><td style="vertical-align:top;">:</td><td><div>2.0.5.1</div></td></tr><tr><td style="font-weight:bold;vertical-align:top;">uwsgi_node</td><td style="vertical-align:top;">:</td><td><div>glenn-liveweb1</div></td></tr><tr><td style="font-weight:bold;vertical-align:top;">uwsgi_version</td><td style="vertical-align:top;">:</td><td><div>2.0.5.1</div></td></tr><tr><td style="font-weight:bold;vertical-align:top;">web2py_path</td><td style="vertical-align:top;">:</td><td><div>/home/tazjel/zweb2py</div></td></tr><tr><td style="font-weight:bold;vertical-align:top;">web2py_version</td><td style="vertical-align:top;">:</td><td><div>2.14.6-stable+timestamp.2016.05.10.00.21.47</div></td></tr><tr><td style="font-weight:bold;vertical-align:top;">wsgi.errors</td><td style="vertical-align:top;">:</td><td><div>&lt;uwsgi_file__bin_user_wsgi_wrapper.ErrorLogFile object at 0x7f296f67b2d0&gt;</div></td></tr><tr><td style="font-weight:bold;vertical-align:top;">wsgi.file_wrapper</td><td style="vertical-align:top;">:</td><td><div>&lt;built-in function uwsgi_sendfile&gt;</div></td></tr><tr><td style="font-weight:bold;vertical-align:top;">wsgi.input</td><td style="vertical-align:top;">:</td><td><div>&lt;uwsgi._Input object at 0x7f2979b91cd8&gt;</div></td></tr><tr><td style="font-weight:bold;vertical-align:top;">wsgi.multiprocess</td><td style="vertical-align:top;">:</td><td><div>True</div></td></tr><tr><td style="font-weight:bold;vertical-align:top;">wsgi.multithread</td><td style="vertical-align:top;">:</td><td><div>False</div></td></tr><tr><td style="font-weight:bold;vertical-align:top;">wsgi.run_once</td><td style="vertical-align:top;">:</td><td><div>False</div></td></tr><tr><td style="font-weight:bold;vertical-align:top;">wsgi.url_scheme</td><td style="vertical-align:top;">:</td><td><div>https</div></td></tr><tr><td style="font-weight:bold;vertical-align:top;">wsgi.version</td><td style="vertical-align:top;">:</td><td><div><table><tr><td><div>1</div></td></tr><tr><td><div>0</div></td></tr></table></div></td></tr><tr><td style="font-weight:bold;vertical-align:top;">wsgi_errors</td><td style="vertical-align:top;">:</td><td><div>&lt;uwsgi_file__bin_user_wsgi_wrapper.ErrorLogFile object at 0x7f296f67b2d0&gt;</div></td></tr><tr><td style="font-weight:bold;vertical-align:top;">wsgi_file_wrapper</td><td style="vertical-align:top;">:</td><td><div>&lt;built-in function uwsgi_sendfile&gt;</div></td></tr><tr><td style="font-weight:bold;vertical-align:top;">wsgi_input</td><td style="vertical-align:top;">:</td><td><div>&lt;uwsgi._Input object at 0x7f2979b91cd8&gt;</div></td></tr><tr><td style="font-weight:bold;vertical-align:top;">wsgi_multiprocess</td><td style="vertical-align:top;">:</td><td><div>True</div></td></tr><tr><td style="font-weight:bold;vertical-align:top;">wsgi_multithread</td><td style="vertical-align:top;">:</td><td><div>False</div></td></tr><tr><td style="font-weight:bold;vertical-align:top;">wsgi_run_once</td><td style="vertical-align:top;">:</td><td><div>False</div></td></tr><tr><td style="font-weight:bold;vertical-align:top;">wsgi_url_scheme</td><td style="vertical-align:top;">:</td><td><div>https</div></td></tr><tr><td style="font-weight:bold;vertical-align:top;">wsgi_version</td><td style="vertical-align:top;">:</td><td><div><table><tr><td><div>1</div></td></tr><tr><td><div>0</div></td></tr></table></div></td></tr></table></div></td></tr><tr><td style="font-weight:bold;vertical-align:top;">extension</td><td style="vertical-align:top;">:</td><td><div>html</div></td></tr><tr><td style="font-weight:bold;vertical-align:top;">folder</td><td style="vertical-align:top;">:</td><td><div>/home/tazjel/zweb2py/applications/belot/</div></td></tr><tr><td style="font-weight:bold;vertical-align:top;">function</td><td style="vertical-align:top;">:</td><td><div>_deal_btn</div></td></tr><tr><td style="font-weight:bold;vertical-align:top;">get_vars</td><td style="vertical-align:top;">:</td><td><div><table></table></div></td></tr><tr><td style="font-weight:bold;vertical-align:top;">global_settings</td><td style="vertical-align:top;">:</td><td><div><table><tr><td style="font-weight:bold;vertical-align:top;">app_folders</td><td style="vertical-align:top;">:</td><td><div>set([&#x27;/home/tazjel/zweb2py/applications/admin/&#x27;, &#x27;/home/tazjel/zweb2py/applications/welcome/&#x27;, &#x27;/home/tazjel/zweb2py/applications/belot/&#x27;, &#x27;/home/tazjel/zweb2py/applications/examples/&#x27;])</div></td></tr><tr><td style="font-weight:bold;vertical-align:top;">applications_parent</td><td style="vertical-align:top;">:</td><td><div>/home/tazjel/zweb2py</div></td></tr><tr><td style="font-weight:bold;vertical-align:top;">db_sessions</td><td style="vertical-align:top;">:</td><td><div>set([])</div></td></tr><tr><td style="font-weight:bold;vertical-align:top;">debugging</td><td style="vertical-align:top;">:</td><td><div>True</div></td></tr><tr><td style="font-weight:bold;vertical-align:top;">gluon_parent</td><td style="vertical-align:top;">:</td><td><div>/home/tazjel/zweb2py</div></td></tr><tr><td style="font-weight:bold;vertical-align:top;">is_jython</td><td style="vertical-align:top;">:</td><td><div>False</div></td></tr><tr><td style="font-weight:bold;vertical-align:top;">is_pypy</td><td style="vertical-align:top;">:</td><td><div>False</div></td></tr><tr><td style="font-weight:bold;vertical-align:top;">is_source</td><td style="vertical-align:top;">:</td><td><div>True</div></td></tr><tr><td style="font-weight:bold;vertical-align:top;">local_hosts</td><td style="vertical-align:top;">:</td><td><div><table><tr><td><div>tazjel.pythonanywhere.com</div></td></tr><tr><td><div>::ffff:127.0.0.1</div></td></tr><tr><td><div>::1</div></td></tr><tr><td><div>glenn-liveweb1</div></td></tr><tr><td><div>localhost</div></td></tr><tr><td><div>50.19.109.98</div></td></tr><tr><td><div>127.0.0.1</div></td></tr></table></div></td></tr><tr><td style="font-weight:bold;vertical-align:top;">web2py_version</td><td style="vertical-align:top;">:</td><td><div>2.14.6-stable+timestamp.2016.05.10.00.21.47</div></td></tr></table></div></td></tr><tr><td style="font-weight:bold;vertical-align:top;">is_https</td><td style="vertical-align:top;">:</td><td><div>True</div></td></tr><tr><td style="font-weight:bold;vertical-align:top;">is_local</td><td style="vertical-align:top;">:</td><td><div>False</div></td></tr><tr><td style="font-weight:bold;vertical-align:top;">is_restful</td><td style="vertical-align:top;">:</td><td><div>False</div></td></tr><tr><td style="font-weight:bold;vertical-align:top;">is_scheduler</td><td style="vertical-align:top;">:</td><td><div>False</div></td></tr><tr><td style="font-weight:bold;vertical-align:top;">is_shell</td><td style="vertical-align:top;">:</td><td><div>False</div></td></tr><tr><td style="font-weight:bold;vertical-align:top;">now</td><td style="vertical-align:top;">:</td><td><div>datetime.datetime(2016, 10, 9, 21, 10, 5, 185357)</div></td></tr><tr><td style="font-weight:bold;vertical-align:top;">post_vars</td><td style="vertical-align:top;">:</td><td><div><table></table></div></td></tr><tr><td style="font-weight:bold;vertical-align:top;">raw_args</td><td style="vertical-align:top;">:</td><td><div>14</div></td></tr><tr><td style="font-weight:bold;vertical-align:top;">raw_extension</td><td style="vertical-align:top;">:</td><td><div>None</div></td></tr><tr><td style="font-weight:bold;vertical-align:top;">restful</td><td style="vertical-align:top;">:</td><td><div>&lt;bound method ?.restful of &lt;Storage {&#x27;_vars&#x27;: None, &#x27;function&#x27;: &#x27;_deal_btn&#x27;, &#x27;cookies&#x27;: &lt;SimpleCookie: _ga=&#x27;GA1.2.66530172.1476043970&#x27; session_id_admin=&#x27;129.208.2.129-c94a9569-d2d2-486b-9dfd-f2992af75c6f&#x27; session_id_belot=&#x27;129.208.2.129-645f4e60-97c1-4325-a170-5a58f3b14569&#x27; session_id_welcome=&#x27;129.208.2.129-db329134-178f-408a-bb60-90e594f20d92&#x27;&gt;, &#x27;args&#x27;: [14L], &#x27;env&#x27;: &lt;Storage {&#x27;content_length&#x27;: &#x27;&#x27;, &#x27;HTTP_REFERER&#x27;: &#x27;https://tazjel.pythonanywhere.com/belot/creategame/index&#x27;, &#x27;uwsgi.version&#x27;: &#x27;2.0.5.1&#x27;, &#x27;SCRIPT_NAME&#x27;: &#x27;&#x27;, &#x27;REQUEST_METHOD&#x27;: &#x27;GET&#x27;, &#x27;SERVER_PROTOCOL&#x27;: &#x27;HTTP/1.1&#x27;, &#x27;http_cache_control&#x27;: &#x27;max-age=0&#x27;, &#x27;web2py_path&#x27;: &#x27;/home/tazjel/zweb2py&#x27;, &#x27;CONTENT_LENGTH&#x27;: &#x27;&#x27;, &#x27;wsgi_url_scheme&#x27;: &#x27;https&#x27;, &#x27;REMOTE_PORT&#x27;: &#x27;35186&#x27;, &#x27;server_name&#x27;: &#x27;tazjel.pythonanywhere.com&#x27;, &#x27;wsgi_multiprocess&#x27;: True, &#x27;applications_parent&#x27;: &#x27;/home/tazjel/zweb2py&#x27;, &#x27;HTTP_X_FORWARDED_FOR&#x27;: &#x27;129.208.2.129&#x27;, &#x27;wsgi_errors&#x27;: &lt;uwsgi_file__bin_user_wsgi_wrapper.ErrorLogFile object at 0x7f296f67b2d0&gt;, &#x27;request_method&#x27;: &#x27;GET&#x27;, &#x27;remote_addr&#x27;: &#x27;10.155.6.104&#x27;, &#x27;https&#x27;: &#x27;on&#x27;, &#x27;http_upgrade_insecure_requests&#x27;: &#x27;1&#x27;, &#x27;REQUEST_URI&#x27;: &#x27;/belot/game/info/14&#x27;, &#x27;uwsgi.node&#x27;: &#x27;glenn-liveweb1&#x27;, &#x27;DOCUMENT_ROOT&#x27;: &#x27;/usr/local/openresty/nginx/html&#x27;, &#x27;wsgi_multithread&#x27;: False, &#x27;SERVER_PORT&#x27;: &#x27;443&#x27;, &#x27;web2py_version&#x27;: &#x27;2.14.6-stable+timestamp.2016.05.10.00.21.47&#x27;, &#x27;HTTP_HOST&#x27;: &#x27;tazjel.pythonanywhere.com&#x27;, &#x27;script_name&#x27;: &#x27;&#x27;, &#x27;content_type&#x27;: &#x27;&#x27;, &#x27;HTTP_UPGRADE_INSECURE_REQUESTS&#x27;: &#x27;1&#x27;, &#x27;HTTP_CACHE_CONTROL&#x27;: &#x27;max-age=0&#x27;, &#x27;request_uri&#x27;: &#x27;/belot/game/info/14&#x27;, &#x27;HTTP_ACCEPT&#x27;: &#x27;text/html,application/xhtml+xml,application/xml;q=0.9,*/*;q=0.8&#x27;, &#x27;http_web2py_component_location&#x27;: &#x27;/belot/game/info/14&#x27;, &#x27;http_connection&#x27;: &#x27;close&#x27;, &#x27;local_hosts&#x27;: [&#x27;tazjel.pythonanywhere.com&#x27;, &#x27;::ffff:127.0.0.1&#x27;, &#x27;::1&#x27;, &#x27;glenn-liveweb1&#x27;, &#x27;localhost&#x27;, &#x27;50.19.109.98&#x27;, &#x27;127.0.0.1&#x27;], &#x27;wsgi.run_once&#x27;: False, &#x27;uwsgi_version&#x27;: &#x27;2.0.5.1&#x27;, &#x27;wsgi.errors&#x27;: &lt;uwsgi_file__bin_user_wsgi_wrapper.ErrorLogFile object at 0x7f296f67b2d0&gt;, &#x27;wsgi.multiprocess&#x27;: True, &#x27;wsgi.version&#x27;: (1, 0), &#x27;wsgi_input&#x27;: &lt;uwsgi._Input object at 0x7f2979b91cd8&gt;, &#x27;app_folders&#x27;: set([&#x27;/home/tazjel/zweb2py/applications/admin/&#x27;, &#x27;/home/tazjel/zweb2py/applications/welcome/&#x27;, &#x27;/home/tazjel/zweb2py/applications/belot/&#x27;, &#x27;/home/tazjel/zweb2py/applications/examples/&#x27;]), &#x27;uwsgi_node&#x27;: &#x27;glenn-liveweb1&#x27;, &#x27;http_web2py_component_element&#x27;: &#x27;c348210703735&#x27;, &#x27;debugging&#x27;: True, &#x27;http_user_agent&#x27;: &#x27;Mozilla/5.0 (X11; Ubuntu; Linux i686; rv:51.0) Gecko/20100101 Firefox/51.0&#x27;, &#x27;HTTP_COOKIE&#x27;: &#x27;session_id_welcome=129.208.2.129-db329134-178f-408a-bb60-90e594f20d92; session_id_admin=129.208.2.129-c94a9569-d2d2-486b-9dfd-f2992af75c6f; session_id_belot=129.208.2.129-645f4e60-97c1-4325-a170-5a58f3b14569; _ga=GA1.2.66530172.1476043970&#x27;, &#x27;HTTP_ACCEPT_LANGUAGE&#x27;: &#x27;en-US,en;q=0.5&#x27;, &#x27;http_x_forwarded_for&#x27;: &#x27;129.208.2.129&#x27;, &#x27;PATH_INFO&#x27;: &#x27;/belot/game/info/14&#x27;, &#x27;server_protocol&#x27;: &#x27;HTTP/1.1&#x27;, &#x27;QUERY_STRING&#x27;: &#x27;&#x27;, &#x27;HTTP_X_REAL_IP&#x27;: &#x27;129.208.2.129&#x27;, &#x27;http_accept&#x27;: &#x27;text/html,application/xhtml+xml,application/xml;q=0.9,*/*;q=0.8&#x27;, &#x27;HTTP_USER_AGENT&#x27;: &#x27;Mozilla/5.0 (X11; Ubuntu; Linux i686; rv:51.0) Gecko/20100101 Firefox/51.0&#x27;, &#x27;HTTP_CONNECTION&#x27;: &#x27;close&#x27;, &#x27;SERVER_NAME&#x27;: &#x27;tazjel.pythonanywhere.com&#x27;, &#x27;REMOTE_ADDR&#x27;: &#x27;10.155.6.104&#x27;, &#x27;is_jython&#x27;: False, &#x27;http_accept_language&#x27;: &#x27;en-US,en;q=0.5&#x27;, &#x27;wsgi_version&#x27;: (1, 0), &#x27;wsgi.url_scheme&#x27;: &#x27;https&#x27;, &#x27;is_source&#x27;: True, &#x27;server_port&#x27;: &#x27;443&#x27;, &#x27;http_accept_encoding&#x27;: &#x27;gzip, deflate, br&#x27;, &#x27;http_x_real_ip&#x27;: &#x27;129.208.2.129&#x27;, &#x27;document_root&#x27;: &#x27;/usr/local/openresty/nginx/html&#x27;, &#x27;http_cookie&#x27;: &#x27;session_id_welcome=129.208.2.129-db329134-178f-408a-bb60-90e594f20d92; session_id_admin=129.208.2.129-c94a9569-d2d2-486b-9dfd-f2992af75c6f; session_id_belot=129.208.2.129-645f4e60-97c1-4325-a170-5a58f3b14569; _ga=GA1.2.66530172.1476043970&#x27;, &#x27;gluon_parent&#x27;: &#x27;/home/tazjel/zweb2py&#x27;, &#x27;wsgi.input&#x27;: &lt;uwsgi._Input object at 0x7f2979b91cd8&gt;, &#x27;http_host&#x27;: &#x27;tazjel.pythonanywhere.com&#x27;, &#x27;path_info&#x27;: &#x27;/belot/game/_deal_btn/14&#x27;, &#x27;HTTPS&#x27;: &#x27;on&#x27;, &#x27;wsgi.multithread&#x27;: False, &#x27;wsgi_file_wrapper&#x27;: &lt;built-in function uwsgi_sendfile&gt;, &#x27;is_pypy&#x27;: False, &#x27;remote_port&#x27;: &#x27;35186&#x27;, &#x27;db_sessions&#x27;: set([]), &#x27;CONTENT_TYPE&#x27;: &#x27;&#x27;, &#x27;http_referer&#x27;: &#x27;https://tazjel.pythonanywhere.com/belot/creategame/index&#x27;, &#x27;query_string&#x27;: &#x27;&#x27;, &#x27;wsgi_run_once&#x27;: False, &#x27;wsgi.file_wrapper&#x27;: &lt;built-in function uwsgi_sendfile&gt;, &#x27;HTTP_ACCEPT_ENCODING&#x27;: &#x27;gzip, deflate, br&#x27;}&gt;, &#x27;vars&#x27;: &lt;Storage {}&gt;, &#x27;global_settings&#x27;: &lt;Storage {&#x27;debugging&#x27;: True, &#x27;is_pypy&#x27;: False, &#x27;local_hosts&#x27;: [&#x27;tazjel.pythonanywhere.com&#x27;, &#x27;::ffff:127.0.0.1&#x27;, &#x27;::1&#x27;, &#x27;glenn-liveweb1&#x27;, &#x27;localhost&#x27;, &#x27;50.19.109.98&#x27;, &#x27;127.0.0.1&#x27;], &#x27;is_source&#x27;: True, &#x27;gluon_parent&#x27;: &#x27;/home/tazjel/zweb2py&#x27;, &#x27;is_jython&#x27;: False, &#x27;applications_parent&#x27;: &#x27;/home/tazjel/zweb2py&#x27;, &#x27;app_folders&#x27;: set([&#x27;/home/tazjel/zweb2py/applications/admin/&#x27;, &#x27;/home/tazjel/zweb2py/applications/welcome/&#x27;, &#x27;/home/tazjel/zweb2py/applications/belot/&#x27;, &#x27;/home/tazjel/zweb2py/applications/examples/&#x27;]), &#x27;db_sessions&#x27;: set([]), &#x27;web2py_version&#x27;: &#x27;2.14.6-stable+timestamp.2016.05.10.00.21.47&#x27;}&gt;, &#x27;raw_extension&#x27;: None, &#x27;_body&#x27;: None, &#x27;_uuid&#x27;: None, &#x27;raw_args&#x27;: &#x27;14&#x27;, &#x27;controller&#x27;: &#x27;game&#x27;, &#x27;application&#x27;: &#x27;belot&#x27;, &#x27;utcnow&#x27;: datetime.datetime(2016, 10, 9, 21, 10, 5, 185374), &#x27;now&#x27;: datetime.datetime(2016, 10, 9, 21, 10, 5, 185357), &#x27;is_local&#x27;: False, &#x27;wsgi&#x27;: &lt;gluon.main.LazyWSGI object at 0x7f295ea19f50&gt;, &#x27;is_shell&#x27;: False, &#x27;extension&#x27;: &#x27;html&#x27;, &#x27;cid&#x27;: &#x27;c348210703735&#x27;, &#x27;url&#x27;: &#x27;/belot/game/info/14&#x27;, &#x27;_get_vars&#x27;: None, &#x27;ajax&#x27;: False, &#x27;is_https&#x27;: True, &#x27;_post_vars&#x27;: None, &#x27;client&#x27;: &#x27;129.208.2.129&#x27;, &#x27;is_restful&#x27;: False, &#x27;is_scheduler&#x27;: False, &#x27;get_vars&#x27;: &lt;Storage {}&gt;, &#x27;folder&#x27;: &#x27;/home/tazjel/zweb2py/applications/belot/&#x27;, &#x27;restful&#x27;: &lt;bound method ?.restful of &lt;Storage {...}&gt;&gt;, &#x27;post_vars&#x27;: &lt;Storage {}&gt;}&gt;&gt;</div></td></tr><tr><td style="font-weight:bold;vertical-align:top;">url</td><td style="vertical-align:top;">:</td><td><div>/belot/game/info/14</div></td></tr><tr><td style="font-weight:bold;vertical-align:top;">utcnow</td><td style="vertical-align:top;">:</td><td><div>datetime.datetime(2016, 10, 9, 21, 10, 5, 185374)</div></td></tr><tr><td style="font-weight:bold;vertical-align:top;">vars</td><td style="vertical-align:top;">:</td><td><div><table></table></div></td></tr><tr><td style="font-weight:bold;vertical-align:top;">wsgi</td><td style="vertical-align:top;">:</td><td><div>&lt;gluon.main.LazyWSGI object at 0x7f295ea19f50&gt;</div></td></tr></table></div>'
tRp58
sS'frames'
p59
(lp60
(dp61
S'file'
p62
S'/home/tazjel/zweb2py/gluon/restricted.py'
p63
sS'dump'
p64
(dp65
S'environment'
p66
S"{'A': <class 'gluon.html.A'>, 'ANY_OF': <class 'gluon.validators.ANY_OF'>, 'ASSIGNJS': <function ASSIGNJS>, 'Auth': <class 'gluon.tools.Auth'>, 'B': <class 'gluon.html.B'>, 'BEAUTIFY': <class 'gluon.html.BEAUTIFY'>, 'BODY': <class 'gluon.html.BODY'>, 'BR': <class 'gluon.html.BR'>, 'BUTTON': <class 'gluon.html.BUTTON'>, 'CAT': <class 'gluon.html.CAT'>, ...}"
p67
sS'ccode'
p68
S'<code object <module> at 0x7f295e48e930, file "/...cations/belot/views/game/_deal_btn.html", line 1>'
p69
ssS'lnum'
p70
I227
sS'lines'
p71
(dp72
I224
S'            ccode = code'
p73
sI225
S'        else:'
p74
sI226
S'            ccode = compile2(code, layer)'
p75
sI227
S'        exec ccode in environment'
p76
sI228
S'    except HTTP:'
p77
sI229
S'        raise'
p78
sI230
S'    except RestrictedError:'
p79
sI231
S'        # do not encapsulate (obfuscate) the original RestrictedError'
p80
sI222
S'    try:'
p81
sI223
S'        if isinstance(code, types.CodeType):'
p82
ssS'call'
p83
S'(code="if any(btn.values()):\\n    response.write(\'\\\\n\\\\n\\\\n...alse)\\n    pass\\nresponse.write(\'\\\\n\', escape=False)", environment={\'A\': <class \'gluon.html.A\'>, \'ANY_OF\': <class \'gluon.validators.ANY_OF\'>, \'ASSIGNJS\': <function ASSIGNJS>, \'Auth\': <class \'gluon.tools.Auth\'>, \'B\': <class \'gluon.html.B\'>, \'BEAUTIFY\': <class \'gluon.html.BEAUTIFY\'>, \'BODY\': <class \'gluon.html.BODY\'>, \'BR\': <class \'gluon.html.BR\'>, \'BUTTON\': <class \'gluon.html.BUTTON\'>, \'CAT\': <class \'gluon.html.CAT\'>, ...}, layer=\'/home/tazjel/zweb2py/applications/belot/views/game/_deal_btn.html\')'
p84
sS'func'
p85
S'restricted'
p86
sa(dp87
g62
S'/home/tazjel/zweb2py/applications/belot/views/game/_deal_btn.html'
p88
sg64
(dp89
S'game.id'
p90
S'14L'
p91
sS'success'
p92
S'undefined'
p93
sS'builtintype'
p94
S"<type 'type'>"
p95
sS'url'
p96
g93
sS'true'
p97
g93
sS'joingame.json'
p98
g93
sS'game'
p99
S"<Row {'description': '\\r\\n', 'status_id': 2L, 'p... (player.game_id = 14)>, 'id': 14L, 'name': '1'}>"
p100
sS'location'
p101
g93
sS'async'
p102
g93
sS'false'
p103
g93
sS'builtinid'
p104
S'<built-in function id>'
p105
sS'data'
p106
g93
sS'joingame'
p107
S'<function joingame>'
p108
ssg70
I15
sg71
(dp109
I6
S"    response.write('\\n', escape=False)"
p110
sI7
S"    if btn['trump']:"
p111
sI8
S'        response.write(\'<button id="leavegame" class="btn btn-default">\\xd8\\xad\\xd9\\x83\\xd9\\x85</button>\', escape=False)'
p112
sI9
S'        pass'
p113
sI10
S"    response.write('\\n', escape=False)"
p114
sI11
S"    if btn['pass']:"
p115
sI12
S'        response.write(\'<button id="startgame" class="btn btn-default">\\xd8\\xa8\\xd8\\xb3</button>\', escape=False)'
p116
sI13
S'        pass'
p117
sI14
S"    response.write('\\n', escape=False)"
p118
sI15
S"    if btn['start']:"
p119
sI16
S'        response.write(\'<button id="startgame" class="btn btn-default">\\xd9\\x88\\xd9\\x84\\xd8\\xa7</button>\', escape=False)'
p120
sI17
S'        pass'
p121
sI18
S'    response.write(\'\\n\\n\\n<hr>\\n\\n<script type="text/javascript">\\n    $(document).ready(function () {\\n        $("#joingame").on("click", function () {\\n            $.ajax({\\n                type:"POST",\\n                url:"\', escape=False)'
p122
sI19
S'    response.write(URL("game","joingame.json"))'
p123
sI20
S'    response.write(\'",\\n                data:{id:\', escape=False)'
p124
sI21
S'    response.write(game.id)'
p125
sI22
S'    response.write(\'},\\n                async:false,\\n                success:location.reload(true)\\n            })\\n        });\\n        \\n        $("#leavegame").on("click", function () {\\n            $.ajax({\\n                type:"POST",\\n                url:"\', escape=False)'
p126
sI23
S'    response.write(URL("game","leavegame.json"))'
p127
sI24
S'    response.write(\'",\\n                data:{id:\', escape=False)'
p128
sI25
S'    response.write(game.id)'
p129
ssg83
S'()'
p130
sg85
S'<module>'
p131
sasS'pyver'
p132
S'Python 2.7.6: /usr/local/bin/uwsgi (prefix: /usr)'
p133
sS'session'
p134
g57
(S'sn\t\x00\x00<div><table><tr><td style="font-weight:bold;vertical-align:top;">auth</td><td style="vertical-align:top;">:</td><td><div><table><tr><td style="font-weight:bold;vertical-align:top;">expiration</td><td style="vertical-align:top;">:</td><td><div>3600</div></td></tr><tr><td style="font-weight:bold;vertical-align:top;">hmac_key</td><td style="vertical-align:top;">:</td><td><div>e2a2d4b6-26bb-4f31-9406-86296968bde2</div></td></tr><tr><td style="font-weight:bold;vertical-align:top;">last_visit</td><td style="vertical-align:top;">:</td><td><div>datetime.datetime(2016, 10, 9, 21, 6, 16, 953772)</div></td></tr><tr><td style="font-weight:bold;vertical-align:top;">user</td><td style="vertical-align:top;">:</td><td><div><table><tr><td style="font-weight:bold;vertical-align:top;">email</td><td style="vertical-align:top;">:</td><td><div>abobani+ai@gmail.com</div></td></tr><tr><td style="font-weight:bold;vertical-align:top;">first_name</td><td style="vertical-align:top;">:</td><td><div></div></td></tr><tr><td style="font-weight:bold;vertical-align:top;">id</td><td style="vertical-align:top;">:</td><td><div>7L</div></td></tr><tr><td style="font-weight:bold;vertical-align:top;">last_name</td><td style="vertical-align:top;">:</td><td><div></div></td></tr><tr><td style="font-weight:bold;vertical-align:top;">name</td><td style="vertical-align:top;">:</td><td><div>\xd8\xa7\xd8\xa8\xd9\x88 \xd8\xa7\xd9\x84\xd8\xb4\xd8\xa8\xd8\xa7\xd8\xa8</div></td></tr><tr><td style="font-weight:bold;vertical-align:top;">registration_id</td><td style="vertical-align:top;">:</td><td><div></div></td></tr><tr><td style="font-weight:bold;vertical-align:top;">registration_key</td><td style="vertical-align:top;">:</td><td><div></div></td></tr><tr><td style="font-weight:bold;vertical-align:top;">reset_password_key</td><td style="vertical-align:top;">:</td><td><div></div></td></tr><tr><td style="font-weight:bold;vertical-align:top;">username</td><td style="vertical-align:top;">:</td><td><div>\xd8\xae\xd9\x88\xd9\x8a</div></td></tr></table></div></td></tr><tr><td style="font-weight:bold;vertical-align:top;">user_groups</td><td style="vertical-align:top;">:</td><td><div><table><tr><td style="font-weight:bold;vertical-align:top;">7</td><td style="vertical-align:top;">:</td><td><div>user_7</div></td></tr></table></div></td></tr></table></div></td></tr><tr><td style="font-weight:bold;vertical-align:top;">flash</td><td style="vertical-align:top;">:</td><td><div>None</div></td></tr></table></div>'
tRp135
sS'etype'
p136
S"<type 'exceptions.KeyError'>"
p137
sS'date'
p138
S'Sun Oct  9 21:10:05 2016'
p139
sS'response'
p140
g57
(S'sG\t\x00\x00<div><table><tr><td style="font-weight:bold;vertical-align:top;">body</td><td style="vertical-align:top;">:</td><td><div>&lt;cStringIO.StringO object at 0x7f296450cb58&gt;</div></td></tr><tr><td style="font-weight:bold;vertical-align:top;">cookies</td><td style="vertical-align:top;">:</td><td><div><table></table></div></td></tr><tr><td style="font-weight:bold;vertical-align:top;">delimiters</td><td style="vertical-align:top;">:</td><td><div><table><tr><td><div>{{</div></td></tr><tr><td><div>}}</div></td></tr></table></div></td></tr><tr><td style="font-weight:bold;vertical-align:top;">files</td><td style="vertical-align:top;">:</td><td><div><table></table></div></td></tr><tr><td style="font-weight:bold;vertical-align:top;">flash</td><td style="vertical-align:top;">:</td><td><div></div></td></tr><tr><td style="font-weight:bold;vertical-align:top;">form_label_separator</td><td style="vertical-align:top;">:</td><td><div>: </div></td></tr><tr><td style="font-weight:bold;vertical-align:top;">formstyle</td><td style="vertical-align:top;">:</td><td><div>table3cols</div></td></tr><tr><td style="font-weight:bold;vertical-align:top;">generic_patterns</td><td style="vertical-align:top;">:</td><td><div><table></table></div></td></tr><tr><td style="font-weight:bold;vertical-align:top;">headers</td><td style="vertical-align:top;">:</td><td><div><table><tr><td style="font-weight:bold;vertical-align:top;">X-Powered-By</td><td style="vertical-align:top;">:</td><td><div>web2py</div></td></tr></table></div></td></tr><tr><td style="font-weight:bold;vertical-align:top;">menu</td><td style="vertical-align:top;">:</td><td><div><table></table></div></td></tr><tr><td style="font-weight:bold;vertical-align:top;">meta</td><td style="vertical-align:top;">:</td><td><div><table></table></div></td></tr><tr><td style="font-weight:bold;vertical-align:top;">postprocessing</td><td style="vertical-align:top;">:</td><td><div><table></table></div></td></tr><tr><td style="font-weight:bold;vertical-align:top;">session_id</td><td style="vertical-align:top;">:</td><td><div>None</div></td></tr><tr><td style="font-weight:bold;vertical-align:top;">status</td><td style="vertical-align:top;">:</td><td><div>200</div></td></tr><tr><td style="font-weight:bold;vertical-align:top;">view</td><td style="vertical-align:top;">:</td><td><div>game/_deal_btn.html</div></td></tr></table></div>'
tRp141
sS'locals'
p142
(dp143
S'compare_cards_is_bigger'
p144
S'<function compare_cards_is_bigger>'
p145
sS'GetGame'
p146
S'<function GetGame>'
p147
sS'Service'
p148
S"<class 'gluon.tools.Service'>"
p149
sS'CheckEndGame'
p150
S'<function CheckEndGame>'
p151
sS'OBJECT'
p152
S"<class 'gluon.html.OBJECT'>"
p153
sS'SQLDB'
p154
S"<class 'pydal.base.DAL'>"
p155
sg134
S"<Storage {'flash': None, 'auth': <Storage {'hmac...gin]': ['31448f2d-db91-4f1c-8ef5-68a57dc968bf']}>"
p156
sS'LINK'
p157
S"<class 'gluon.html.LINK'>"
p158
sS'BR'
p159
S"<class 'gluon.html.BR'>"
p160
sS'local_import'
p161
S'<function <lambda>>'
p162
sS'OPTGROUP'
p163
S"<class 'gluon.html.OPTGROUP'>"
p164
sS'DEVELOPMENT_MENU'
p165
S'True'
p166
sS'PRE'
p167
S"<class 'gluon.html.PRE'>"
p168
sS'IS_INT_IN_RANGE'
p169
S"<class 'gluon.validators.IS_INT_IN_RANGE'>"
p170
sS'IS_LOWER'
p171
S"<class 'gluon.validators.IS_LOWER'>"
p172
sS'IS_STRONG'
p173
S"<class 'gluon.validators.IS_STRONG'>"
p174
sS'cache'
p175
S'<gluon.cache.Cache object>'
p176
sS'IS_IN_DB'
p177
S"<class 'gluon.validators.IS_IN_DB'>"
p178
sS'TAG'
p179
S'<gluon.html.__TAG__ object>'
p180
sS'SQLField'
p181
S"<class 'pydal.objects.Field'>"
p182
sS'mail'
p183
S'<gluon.tools.Mail object>'
p184
sS'BODY'
p185
S"<class 'gluon.html.BODY'>"
p186
sS'IS_DATE_IN_RANGE'
p187
S"<class 'gluon.validators.IS_DATE_IN_RANGE'>"
p188
sS'random'
p189
S"<module 'random' from '/usr/lib/python2.7/random.pyc'>"
p190
sS'IFRAME'
p191
S"<class 'gluon.html.IFRAME'>"
p192
sS'URL'
p193
S'<function URL>'
p194
sS'__file__'
p195
S"'/home/tazjel/zweb2py/applications/belot/views/game/_deal_btn.html'"
p196
sS'db'
p197
S'<DAL uri="sqlite://storage.sqlite">'
p198
sS'auth'
p199
S'<gluon.tools.Auth object>'
p200
sS'P'
S"<class 'gluon.html.P'>"
p201
sS'game'
p202
S"<Row {'description': '\\r\\n', 'status_id': 2L, 'p... (player.game_id = 14)>, 'id': 14L, 'name': '1'}>"
p203
sS'GetAllGames'
p204
S'<function GetAllGames>'
p205
sS'value_classic'
p206
S'[11, 10, 4, 3, 2, 0, 0, 0]'
p207
sS'XHTML'
p208
S"<class 'gluon.html.XHTML'>"
p209
sS'ON'
p210
g166
sS'OL'
p211
S"<class 'gluon.html.OL'>"
p212
sS'TEXTAREA'
p213
S"<class 'gluon.html.TEXTAREA'>"
p214
sS'MENU'
p215
S"<class 'gluon.html.MENU'>"
p216
sS'_deal_btn'
p217
S'<function _deal_btn>'
p218
sS'__package__'
p219
S'None'
p220
sS'IS_IMAGE'
p221
S"<class 'gluon.validators.IS_IMAGE'>"
p222
sS'_buy_offer'
p223
S'<function _buy_offer>'
p224
sS'EM'
p225
S"<class 'gluon.html.EM'>"
p226
sS'CODE'
p227
S"<class 'gluon.html.CODE'>"
p228
sS'HTTP'
p229
S"<class 'gluon.http.HTTP'>"
p230
sS'HR'
p231
S"<class 'gluon.html.HR'>"
p232
sS'deletegame'
p233
S'<function deletegame>'
p234
sS'IS_DATETIME'
p235
S"<class 'gluon.validators.IS_DATETIME'>"
p236
sS'STYLE'
p237
S"<class 'gluon.html.STYLE'>"
p238
sS'LABEL'
p239
S"<class 'gluon.html.LABEL'>"
p240
sS'CLEANUP'
p241
S"<class 'gluon.validators.CLEANUP'>"
p242
sS'plugins'
p243
S'<gluon.tools.PluginManager object>'
p244
sS'GetPlayersByGame'
p245
S'<function GetPlayersByGame>'
p246
sS'btn'
p247
S"{'more': False, 'no': False, 'pass': True, 'sun': True, 'trump': True}"
p248
sS'SELECT'
p249
S"<class 'gluon.html.SELECT'>"
p250
sS'index'
p251
S'<function index>'
p252
sS'use_janrain'
p253
S'<function use_janrain>'
p254
sS'CENTER'
p255
S"<class 'gluon.html.CENTER'>"
p256
sS'Auth'
p257
S"<class 'gluon.tools.Auth'>"
p258
sS'CreatePlayer'
p259
S'<function CreatePlayer>'
p260
sS'current'
p261
S'<function current>'
p262
sS'__builtins__'
p263
S"{'ArithmeticError': <type 'exceptions.ArithmeticError'>, 'AssertionError': <type 'exceptions.AssertionError'>, 'AttributeError': <type 'exceptions.AttributeError'>, 'BaseException': <type 'exceptions.BaseException'>, 'BufferError': <type 'exceptions.BufferError'>, 'BytesWarning': <type 'exceptions.BytesWarning'>, 'DeprecationWarning': <type 'exceptions.DeprecationWarning'>, 'EOFError': <type 'exceptions.EOFError'>, 'Ellipsis': Ellipsis, 'EnvironmentError': <type 'exceptions.EnvironmentError'>, ...}"
p264
sS'HTML'
p265
S"<class 'gluon.html.HTML'>"
p266
sS'SQLFORM'
p267
S"<class 'gluon.sqlhtml.SQLFORM'>"
p268
sS'LOAD'
p269
S'<function LOAD>'
p270
sS'redirect'
p271
S'<function redirect>'
p272
sS'FIELDSET'
p273
S"<class 'gluon.html.FIELDSET'>"
p274
sS'IS_EQUAL_TO'
p275
S"<class 'gluon.validators.IS_EQUAL_TO'>"
p276
sS'leavegame'
p277
S'<function leavegame>'
p278
sS'embed64'
p279
S'<function embed64>'
p280
sS'IS_LIST_OF'
p281
S"<class 'gluon.validators.IS_LIST_OF'>"
p282
sS'INPUT'
p283
S"<class 'gluon.html.INPUT'>"
p284
sS'EMBED'
p285
S"<class 'gluon.html.EMBED'>"
p286
sS'_'
S'<function _>'
p287
sS'c'
S"(14, 'Club')"
p288
sS'H2'
p289
S"<class 'gluon.html.H2'>"
p290
sS'H3'
p291
S"<class 'gluon.html.H3'>"
p292
sS'BUTTON'
p293
S"<class 'gluon.html.BUTTON'>"
p294
sS'order_b_trump'
p295
S'[12, 9, 11, 10, 14, 13, 8, 7]'
p296
sS'order_classic'
p297
S'[11, 10, 14, 13, 12, 9, 8, 7]'
p298
sS'H4'
p299
S"<class 'gluon.html.H4'>"
p300
sS'H5'
p301
S"<class 'gluon.html.H5'>"
p302
sS'UL'
p303
S"<class 'gluon.html.UL'>"
p304
sS'itertools'
p305
S"<module 'itertools' (built-in)>"
p306
sS'IS_UPPER'
p307
S"<class 'gluon.validators.IS_UPPER'>"
p308
sS'xmlescape'
p309
S'<function xmlescape>'
p310
sS'startgame'
p311
S'<function startgame>'
p312
sS'value_trump'
p313
S'[20, 14, 11, 10, 4, 3, 0, 0]'
p314
sS'shuffle'
p315
S'<function shuffle>'
p316
sS'OPTION'
p317
S"<class 'gluon.html.OPTION'>"
p318
sS'TITLE'
p319
S"<class 'gluon.html.TITLE'>"
p320
sS'CRYPT'
p321
S"<class 'gluon.validators.CRYPT'>"
p322
sS'IS_EMPTY_OR'
p323
S"<class 'gluon.validators.IS_EMPTY_OR'>"
p324
sS'MARKMIN'
p325
S"<class 'gluon.html.MARKMIN'>"
p326
sS'__name__'
p327
S"'__restricted__'"
p328
sS'STRONG'
p329
S"<class 'gluon.html.STRONG'>"
p330
sS'COL'
p331
S"<class 'gluon.html.COL'>"
p332
sS'service'
p333
S'<gluon.tools.Service object>'
p334
sS'SCRIPT'
p335
S"<class 'gluon.html.SCRIPT'>"
p336
sS'_gamebuttons'
p337
S'<function _gamebuttons>'
p338
sS'TABLE'
p339
S"<class 'gluon.html.TABLE'>"
p340
sS'IS_IPV4'
p341
S"<class 'gluon.validators.IS_IPV4'>"
p342
sS'IS_LENGTH'
p343
S"<class 'gluon.validators.IS_LENGTH'>"
p344
sS'IS_IPV6'
p345
S"<class 'gluon.validators.IS_IPV6'>"
p346
sS'XML'
p347
S"<class 'gluon.html.XML'>"
p348
sS'game_on'
p349
S'<function game_on>'
p350
sS'B'
S"<class 'gluon.html.B'>"
p351
sS'IMG'
p352
S"<class 'gluon.html.IMG'>"
p353
sS'SQLTABLE'
p354
S"<class 'gluon.sqlhtml.SQLTABLE'>"
p355
sS'IS_MATCH'
p356
S"<class 'gluon.validators.IS_MATCH'>"
p357
sS'set_trump'
p358
S'<function set_trump>'
p359
sS'IS_ALPHANUMERIC'
p360
S"<class 'gluon.validators.IS_ALPHANUMERIC'>"
p361
sS'info'
p362
S'<function info>'
p363
sS'SPAN'
p364
S"<class 'gluon.html.SPAN'>"
p365
sS'IS_JSON'
p366
S"<class 'gluon.validators.IS_JSON'>"
p367
sS'IS_IPADDRESS'
p368
S"<class 'gluon.validators.IS_IPADDRESS'>"
p369
sS'IS_SLUG'
p370
S"<class 'gluon.validators.IS_SLUG'>"
p371
sS'BEAUTIFY'
p372
S"<class 'gluon.html.BEAUTIFY'>"
p373
sS'META'
p374
S"<class 'gluon.html.META'>"
p375
sS'joingame'
p376
S'<function joingame>'
p377
sS'cards'
p378
S'[7Heart, 7Diamond, 7Spade, 7Club, 8Heart, 8Diamond, 8Spade, 8Club, 9Heart, 9Diamond, 9Spade, 9Club, 10Heart, 10Diamond, 10Spade, 10Club, 11Heart, 11Diamond, 11Spade, 11Club, ...]'
p379
sS'H1'
p380
S"<class 'gluon.html.H1'>"
p381
sS'IS_DATE'
p382
S"<class 'gluon.validators.IS_DATE'>"
p383
sS'IS_EMAIL'
p384
S"<class 'gluon.validators.IS_EMAIL'>"
p385
sS'_playerinfo'
p386
S'<function _playerinfo>'
p387
sS'IS_NOT_EMPTY'
p388
S"<class 'gluon.validators.IS_NOT_EMPTY'>"
p389
sS'H6'
p390
S"<class 'gluon.html.H6'>"
p391
sS'TBODY'
p392
S"<class 'gluon.html.TBODY'>"
p393
sS'display_deck'
p394
S'<function display_deck>'
p395
sS'CAT'
p396
S"<class 'gluon.html.CAT'>"
p397
sS'Field'
p398
S"<class 'pydal.objects.Field'>"
p399
sS'IS_LIST_OF_EMAILS'
p400
S"<class 'gluon.validators.IS_LIST_OF_EMAILS'>"
p401
sS'DIV'
p402
S"<class 'gluon.html.DIV'>"
p403
sS'LEGEND'
p404
S"<class 'gluon.html.LEGEND'>"
p405
sS'COLGROUP'
p406
S"<class 'gluon.html.COLGROUP'>"
p407
sS'DAL'
p408
S"<class 'pydal.base.DAL'>"
p409
sS'ASSIGNJS'
p410
S'<function ASSIGNJS>'
p411
sS'TR'
p412
S"<class 'gluon.html.TR'>"
p413
sS'LI'
p414
S"<class 'gluon.html.LI'>"
p415
sS'TH'
p416
S"<class 'gluon.html.TH'>"
p417
sS'TD'
p418
S"<class 'gluon.html.TD'>"
p419
sS'PluginManager'
p420
S"<class 'gluon.tools.PluginManager'>"
p421
sS'IS_URL'
p422
S"<class 'gluon.validators.IS_URL'>"
p423
sS'A'
S"<class 'gluon.html.A'>"
p424
sS'HEAD'
p425
S"<class 'gluon.html.HEAD'>"
p426
sS'IS_DATETIME_IN_RANGE'
p427
S"<class 'gluon.validators.IS_DATETIME_IN_RANGE'>"
p428
sS'FORM'
p429
S"<class 'gluon.html.FORM'>"
p430
sS'I'
S"<class 'gluon.html.I'>"
p431
sS'killplayer'
p432
S'<function killplayer>'
p433
sS'IS_NOT_IN_DB'
p434
S"<class 'gluon.validators.IS_NOT_IN_DB'>"
p435
sg140
S"<Storage {'status': 200, 'body': <cStringIO.Stri...t': None, 'files': [], '_custom_rollback': None}>"
p436
sS'THEAD'
p437
S"<class 'gluon.html.THEAD'>"
p438
sS'ANY_OF'
p439
S"<class 'gluon.validators.ANY_OF'>"
p440
sS'IS_NULL_OR'
p441
S"<class 'gluon.validators.IS_EMPTY_OR'>"
p442
sS'IS_TIME'
p443
S"<class 'gluon.validators.IS_TIME'>"
p444
sS'IS_FLOAT_IN_RANGE'
p445
S"<class 'gluon.validators.IS_FLOAT_IN_RANGE'>"
p446
sS'TFOOT'
p447
S"<class 'gluon.html.TFOOT'>"
p448
sg56
S"<Storage {'_vars': None, 'function': '_deal_btn'... of <Storage {...}>>, 'post_vars': <Storage {}>}>"
p449
sS'IS_EXPR'
p450
S"<class 'gluon.validators.IS_EXPR'>"
p451
sS'CreateGame'
p452
S'<function CreateGame>'
p453
sS'GetGamesByUser'
p454
S'<function GetGamesByUser>'
p455
sS'IS_IN_SET'
p456
S"<class 'gluon.validators.IS_IN_SET'>"
p457
sS'Card'
p458
S'<class applications.belot.modules.card.Card>'
p459
sS'IS_UPLOAD_FILENAME'
p460
S"<class 'gluon.validators.IS_UPLOAD_FILENAME'>"
p461
sS'IS_DECIMAL_IN_RANGE'
p462
S"<class 'gluon.validators.IS_DECIMAL_IN_RANGE'>"
p463
sS'TT'
p464
S"<class 'gluon.html.TT'>"
p465
sS'T'
S'<gluon.languages.translator object>'
p466
sssS'traceback'
p467
S'Traceback (most recent call last):\n  File "/home/tazjel/zweb2py/gluon/restricted.py", line 227, in restricted\n    exec ccode in environment\n  File "/home/tazjel/zweb2py/applications/belot/views/game/_deal_btn.html", line 15, in <module>\n    $.ajax({\nKeyError: \'start\'\n'
p468
s.