(dp1
S'output'
p2
S'missing "pass" in view'
p3
sS'layer'
p4
S'ParserContainer'
p5
sS'code'
p6
S'response.write(\'<!DOCTYPE html>\\n<head>\\n<title>\', escape=False)\nresponse.write(response.title or request.application)\nresponse.write(\'</title>\\n  <meta charset="utf-8" />\\n  <meta name="application-name" content="\', escape=False)\nresponse.write(request.application)\nresponse.write(\'" />\\n  <meta name="viewport" content="width=device-width, initial-scale=1.0" />\\n  <link rel="shortcut icon" href="\', escape=False)\nresponse.write(URL(\'static\',\'images/favicon.ico\'))\nresponse.write(\'" type="image/x-icon">\\n  <link rel="apple-touch-icon" href="\', escape=False)\nresponse.write(URL(\'static\',\'images/favicon.png\'))\nresponse.write(\'">\\n\\n  <!-- include stylesheets -->\\n  <script src="\', escape=False)\nresponse.write(URL("static","js/jquery.js"))\nresponse.write(\'" type="text/javascript"></script>\\n  <link href="\', escape=False)\nresponse.write(URL("static","bootstrap/css/bootstrap.min.css"))\nresponse.write(\'" rel="stylesheet" type="text/css">\\n  <link href="\', escape=False)\nresponse.write(URL("static","css/assassins.css"))\nresponse.write(\'" rel="stylesheet" type="text/css">\\n  <link href="//cdn.datatables.net/plug-ins/9dcbecd42ad/integration/bootstrap/3/dataTables.bootstrap.css" rel="stylesheet" type="text/css">\\n\\n</head>\\n\\n<body>\\n    \', escape=False)\nresponse.write(\'<header class="navbar navbar-static-top navbar-inverse hidden-xs">\\n  <div class="container-fluid">\\n    <div class="navbar-header">\\n      <div class="navbar-brand">\\n        <img class="splatter" src="\', escape=False)\nresponse.write(URL(\'static\',\'img/splatter.png\'))\nresponse.write(\'">\\n        <span>Assassins</span>\\n      </div>\\n    </div>\\n    \', escape=False)\nresponse.write(\'<nav class="collapse navbar-collapse bs-navbar-collapse" role="navigation">\\n    <ul class="nav navbar-nav">\\n        \', escape=False)\nif auth.user:\n    response.write(\'\\n            <li><a href="\', escape=False)\n    response.write(URL(\'game\',\'current\'))\n    response.write(\'">My current games</a></li>\\n            <li><a href="\', escape=False)\n    response.write(URL(\'findgame\',\'index\'))\n    response.write(\'">Find a game</a></li>\\n            <li><a href="\', escape=False)\n    response.write(URL(\'creategame\',\'index\'))\n    response.write(\'">Create a game</a></li>\\n            <li class="visible-xs"><a href="\', escape=False)\n    response.write(URL(\'default\',\'profile\'))\n    response.write(\'">\', escape=False)\n    response.write(auth.user.name)\n    response.write(\'\\\'s profile</a></li>\\n            <li class="visible-xs"><a href="\', escape=False)\n    response.write(URL(\'default\',\'changepassword\'))\n    response.write(\'">Change password</a></li>\\n            <li class="visible-xs"><a href="\', escape=False)\n    response.write(URL(\'default\',\'user\', args = [\'logout\']))\n    response.write(\'">Log out</a></li>\\n        \', escape=False)\nelse:\n    response.write(\'\\n            <li class="visible-xs"><a href="\', escape=False)\n    response.write(URL(\'default\',\'login\'))\n    response.write(\'">Log in</a></li>\\n            <li class="visible-xs"><a href="\', escape=False)\n    response.write(URL(\'default\',\'register\'))\n    response.write(\'">Register</a></li>\\n        \', escape=False)\n    pass\nresponse.write(\'        \\n    </ul>\\n    <ul class="nav navbar-nav navbar-right hidden-xs">\\n        \', escape=False)\nif auth.user:\n    response.write(\'\\n            <li class="dropdown">\\n                <a href="#" class="dropdown-toggle" data-toggle="dropdown" role="button" aria-expanded="true">\', escape=False)\n    response.write(auth.user.name)\n    response.write(\' <span class="caret"></span></a>\\n                <ul class="dropdown-menu" role="menu">\\n                    <li><a href="\', escape=False)\n    response.write(URL(\'default\',\'profile\'))\n    response.write(\'">Profile</a></li>\\n                    <li><a href="\', escape=False)\n    response.write(URL(\'default\',\'changepassword\'))\n    response.write(\'">Change password</a></li>\\n                    <li class="divider"></li>\\n                    <li><a href="\', escape=False)\n    response.write(URL(\'default\',\'user\', args = [\'logout\']))\n    response.write(\'">Log out</a></li>\\n                </ul>\\n            </li>\\n        \', escape=False)\nelse:\n    response.write(\'\\n            <li><a href="\', escape=False)\n    response.write(URL(\'default\',\'login\'))\n    response.write(\'">Log in</a></li>\\n            <li><a href="\', escape=False)\n    response.write(URL(\'default\',\'register\'))\n    response.write(\'">Register</a></li>\\n        \', escape=False)\n    pass\nresponse.write(\'\\n    </ul>\\n</nav>\', escape=False)\nresponse.write(\'\\n  </div>\\n</header>\\n\\n<header class="navbar navbar-static-top navbar-inverse visible-xs" data-toggle="collapse" data-target=".bs-navbar-collapse">\\n  <div class="container-fluid">\\n    <div class="navbar-header">\\n      <button class="navbar-toggle collapsed" type="button">\\n        <span class="sr-only">Toggle navigation</span>\\n        <span class="icon-bar"></span>\\n        <span class="icon-bar"></span>\\n        <span class="icon-bar"></span>\\n      </button>\\n      <div class="navbar-brand">\\n        <img class="splatter" src="\', escape=False)\nresponse.write(URL(\'static\',\'img/splatter.png\'))\nresponse.write(\'">\\n        <span>Assassins</span>\\n      </div>\\n    </div>\\n    \', escape=False)\nresponse.write(\'<nav class="collapse navbar-collapse bs-navbar-collapse" role="navigation">\\n    <ul class="nav navbar-nav">\\n        \', escape=False)\nif auth.user:\n    response.write(\'\\n            <li><a href="\', escape=False)\n    response.write(URL(\'game\',\'current\'))\n    response.write(\'">My current games</a></li>\\n            <li><a href="\', escape=False)\n    response.write(URL(\'findgame\',\'index\'))\n    response.write(\'">Find a game</a></li>\\n            <li><a href="\', escape=False)\n    response.write(URL(\'creategame\',\'index\'))\n    response.write(\'">Create a game</a></li>\\n            <li class="visible-xs"><a href="\', escape=False)\n    response.write(URL(\'default\',\'profile\'))\n    response.write(\'">\', escape=False)\n    response.write(auth.user.name)\n    response.write(\'\\\'s profile</a></li>\\n            <li class="visible-xs"><a href="\', escape=False)\n    response.write(URL(\'default\',\'changepassword\'))\n    response.write(\'">Change password</a></li>\\n            <li class="visible-xs"><a href="\', escape=False)\n    response.write(URL(\'default\',\'user\', args = [\'logout\']))\n    response.write(\'">Log out</a></li>\\n        \', escape=False)\nelse:\n    response.write(\'\\n            <li class="visible-xs"><a href="\', escape=False)\n    response.write(URL(\'default\',\'login\'))\n    response.write(\'">Log in</a></li>\\n            <li class="visible-xs"><a href="\', escape=False)\n    response.write(URL(\'default\',\'register\'))\n    response.write(\'">Register</a></li>\\n        \', escape=False)\n    pass\nresponse.write(\'        \\n    </ul>\\n    <ul class="nav navbar-nav navbar-right hidden-xs">\\n        \', escape=False)\nif auth.user:\n    response.write(\'\\n            <li class="dropdown">\\n                <a href="#" class="dropdown-toggle" data-toggle="dropdown" role="button" aria-expanded="true">\', escape=False)\n    response.write(auth.user.name)\n    response.write(\' <span class="caret"></span></a>\\n                <ul class="dropdown-menu" role="menu">\\n                    <li><a href="\', escape=False)\n    response.write(URL(\'default\',\'profile\'))\n    response.write(\'">Profile</a></li>\\n                    <li><a href="\', escape=False)\n    response.write(URL(\'default\',\'changepassword\'))\n    response.write(\'">Change password</a></li>\\n                    <li class="divider"></li>\\n                    <li><a href="\', escape=False)\n    response.write(URL(\'default\',\'user\', args = [\'logout\']))\n    response.write(\'">Log out</a></li>\\n                </ul>\\n            </li>\\n        \', escape=False)\nelse:\n    response.write(\'\\n            <li><a href="\', escape=False)\n    response.write(URL(\'default\',\'login\'))\n    response.write(\'">Log in</a></li>\\n            <li><a href="\', escape=False)\n    response.write(URL(\'default\',\'register\'))\n    response.write(\'">Register</a></li>\\n        \', escape=False)\n    pass\nresponse.write(\'\\n    </ul>\\n</nav>\', escape=False)\nresponse.write(\'\\n  </div>\\n</header>\', escape=False)\nresponse.write(\'\\n    \', escape=False)\nresponse.write(\'\\n<div class="container-fluid content">\\n    \', escape=False)\nresponse.write(\'\\n\\n      <script src="\', escape=False)\nresponse.write(URL(\'static\',\'js/belot.js\'))\nresponse.write(\'"></script>\\n\\n      <script src="\', escape=False)\nresponse.write(URL(\'static\',\'js/jq.js\'))\nresponse.write(\'"></script>\\n\\n\', escape=False)\nCARDS = {(7, \'C\'): \'7spatiq.png\', (7, \'D\'): \'7karo.png\',\n(7, \'H\'): \'7kupa.png\', (7, \'S\'): \'7pika.png\',\n(8, \'C\'): \'8spatiq.png\', (8, \'D\'): \'8karo.png\',\n(8, \'H\'): \'8kupa.png\', (8, \'S\'): \'8pika.png\',\n(9, \'C\'): \'9spatiq.png\', (9, \'D\'): \'9karo.png\',\n(9, \'H\'): \'9kupa.png\', (9, \'S\'): \'9pika.png\',\n(10, \'C\'): \'10spatiq.png\', (10, \'D\'): \'10karo.png\',\n(10, \'H\'): \'10kupa.png\', (10, \'S\'): \'10pika.png\',\n(11, \'C\'): \'11spatiq.png\', (11, \'D\'): \'11karo.png\',\n(11, \'H\'): \'11kupa.png\', (11, \'S\'): \'11pika.png\',\n(12, \'C\'): \'12spatiq.png\', (12, \'D\'): \'12karo.png\',\n(12, \'H\'): \'12kupa.png\', (12, \'S\'): \'12pika.png\',\n(13, \'C\'): \'13spatiq.png\', (13, \'D\'): \'13karo.png\',\n(13, \'H\'): \'13kupa.png\', (13, \'S\'): \'13pika.png\',\n(14, \'C\'): \'14spatiq.png\', (14, \'D\'): \'14karo.png\',\n(14, \'H\'): \'14kupa.png\', (14, \'S\'): \'14pika.png\'}\nresponse.write(\'\\n\\n<!--\\n\', escape=False)\nfrom deck import Deck\nresponse.write(\' -->\\n\', escape=False)\nfrom players.playerRandomPlayableCards import PlayerRandomPlayableCards\nresponse.write(\'\\n\', escape=False)\nfrom players.playerDummy import PlayerDummy\nresponse.write(\'\\n\', escape=False)\nfrom order import Order\nresponse.write(\'\\n\', escape=False)\nfrom game import Game\nresponse.write(\'\\n\\n\', escape=False)\ndeck = Deck()\nresponse.write(\'\\n\', escape=False)\norder = Order()\nresponse.write(\'\\n<!-- \', escape=False)\ncards = []\nresponse.write(\' -->\\n\\n\', escape=False)\nif game.status_id.name == \'started\':\n    response.write(\'\\n\', escape=False)\n    cards = []\n    response.write(\'\\n\', escape=False)\n    cards = [(c[0], c[1]) for c in itertools.product(range(7, 15), [\'Heart\', \'Diamond\', \'Spade\', \'Club\'])]\n    response.write(\'\\n\', escape=False)\n    random.shuffle(cards)\n    response.write(\'\\n\\n\\n\', escape=False)\n    P0_hand = []\n    response.write(\'\\n\\n<!-- P1.hand.extend(deck.cards[5:10]) -->\\n<!-- P00.hand.extend(deck.cards[10:15]) -->\\n<!-- #     P11.hand.extend(deck.cards[15:20]) -->\\n<!-- \', escape=False)\n    pass\nresponse.write(\' -->\\n\\n<!-- \', escape=False)\nP0_hand = []\nresponse.write(\' -->\\n<!-- P0.hand.extend(deck.cards[:5]) -->\\n<!-- \', escape=False)\nP0_hand = P0_hand.extend(cards[:5])\nresponse.write(\' -->\\n\\n\', escape=False)\nplayer_1 = PlayerRandomPlayableCards("player_1", 1, 1)\nresponse.write(\'\\n\', escape=False)\nplayer_2 = PlayerRandomPlayableCards("player_2", 2, 2)\nresponse.write(\'\\n\', escape=False)\nplayer_3 = PlayerRandomPlayableCards("player_3", 3, 1)\nresponse.write(\'\\n\', escape=False)\nplayer_4 = PlayerRandomPlayableCards("player_4", 4, 2)\nresponse.write(\'\\n\\n\', escape=False)\nend, v1, v2, con = Game(player_1, player_2, player_3, player_4, deck).display_loot()\nresponse.write(\'\\n\\n<!-- cards container -->\\n<!-- \', escape=False)\ncards = [(c[0], c[1]) for c in itertools.product(range(7, 15), [\'Heart\', \'Diamond\', \'Spade\', \'Club\'])]\nresponse.write(\' -->\\n<!-- \', escape=False)\nzdeck = [(c[0], c[1]) for c in itertools.product(range(7, 15), [u"\xe2\x99\xa3".encode (\'utf-8\' ), u"\xe2\x99\xa0", u"\xe2\x99\xa5", u"\xe2\x99\xa6"])]\nresponse.write(\' -->\\n\\n\', escape=False)\npass\nresponse.write(\'\\n\\n\\n\\n\', escape=False)\nfor  in P0_hand:\n    response.write(\'\\n     <img src=\', escape=False)\n    response.write(URL(\'static\',\'images\',args=\'images/%s\' %l))\n    response.write(\' alt="golem"class=bottom>\\n\\n <style> img.bottom { vertical-align: text-bottom; } </style>\\n     <img src=\', escape=False)\n    response.write(URL(\'static\',\'images\',args=\'images/10spatiq.png\'))\n    response.write(\' alt="golem"class=bottom>\\n<!-- cards container -->\\n<div id=\\\'pack_cont\\\'>\\n\\n<!-- \', escape=False)\n    response.write(cards)\n    response.write(\' -->\\n\\n\\t\', escape=False)\n    CARDS = {(7, \'C\'): \'7spatiq.png\', (7, \'D\'): \'7karo.png\',\n    (7, \'H\'): \'7kupa.png\', (7, \'S\'): \'7pika.png\',\n    (8, \'C\'): \'8spatiq.png\', (8, \'D\'): \'8karo.png\',\n    (8, \'H\'): \'8kupa.png\', (8, \'S\'): \'8pika.png\',\n    (9, \'C\'): \'9spatiq.png\', (9, \'D\'): \'9karo.png\',\n    (9, \'H\'): \'9kupa.png\', (9, \'S\'): \'9pika.png\',\n    (10, \'C\'): \'10spatiq.png\', (10, \'D\'): \'10karo.png\',\n    (10, \'H\'): \'10kupa.png\', (10, \'S\'): \'10pika.png\',\n    (11, \'C\'): \'11spatiq.png\', (11, \'D\'): \'11karo.png\',\n    (11, \'H\'): \'11kupa.png\', (11, \'S\'): \'11pika.png\',\n    (12, \'C\'): \'12spatiq.png\', (12, \'D\'): \'12karo.png\',\n    (12, \'H\'): \'12kupa.png\', (12, \'S\'): \'12pika.png\',\n    (13, \'C\'): \'13spatiq.png\', (13, \'D\'): \'13karo.png\',\n    (13, \'H\'): \'13kupa.png\', (13, \'S\'): \'13pika.png\',\n    (14, \'C\'): \'14spatiq.png\', (14, \'D\'): \'14karo.png\',\n    (14, \'H\'): \'14kupa.png\', (14, \'S\'): \'14pika.png\'}\n    response.write(\'\\n\\t<!-- single card -->\\n\\n\', escape=False)\n    from gluon.contrib.markdown import markdown2\n    response.write(\'\\n\\n\', escape=False)\n    response.write(LOAD("game","_playerinfo", args=[game.id]))\n    response.write(\'\\n\\n\', escape=False)\n    response.write(LOAD("game","_gamebuttons", args=[game.id]))\n    response.write(\'\\n<h1>\', escape=False)\n    response.write(game.name)\n    response.write(\'</h1>\\n<h4>\', escape=False)\n    response.write(game.status_id.description)\n    response.write(\'</h4>\\n<hr>\\n\', escape=False)\n    response.write(XML(markdown2.markdown(game.description)))\n    response.write(\'\\n<h4>Players</h4>\\n\', escape=False)\n    for player in players:\n        response.write(\'\\n    <span class="\', escape=False)\n        response.write(player.role_id.name)\n        response.write(\' \', escape=False)\n        response.write(player.status_id.name)\n        response.write(\'">\', escape=False)\n        response.write(player.user_id.name)\n        response.write(\'</span><br>\\n\', escape=False)\n        pass\n    response.write(\'\\n\\n\', escape=False)\n    response.write(LOAD("game","_deal_btn", args=[game.id]))\n    response.write(\'\\n\\n\', escape=False)\n    response.write(LOAD("game","_playerinfo", args=[game.id]))\n    response.write(\'\\n\\n<div>\\n\\t\', escape=False)\n    response.write(v1)\n    response.write(\'\\n\\n</div> \\n<div>\\n\\t\', escape=False)\n    response.write(v2)\n    response.write(\'\\n\\n</div> \\n</br>\\n</br>\\n\\xd9\\x84\\xd9\\x86\\xd8\\xa7 \\n\\n\', escape=False)\n    response.write(v1)\n    response.write(\'\\n</br>\\n</br>\\n\\xd9\\x84\\xd9\\x87\\xd9\\x85 \', escape=False)\n    response.write(v2)\n    response.write(\'\\n\\n</br>\\n</br>\\n\\n\', escape=False)\n    response.write(end)\n    response.write(\'\\n\\n\\n</br>\\n</br>\\n\\xd8\\xa7\\xd9\\x84\\xd9\\x86\\xd8\\xaa\\xd9\\x8a\\xd8\\xac\\xd8\\xa9\\n\', escape=False)\n    response.write(con)\n    response.write(\'\\n\', escape=False)\n    response.write(\'\\n</div>\', escape=False)\n    response.write(\'\\n    <script src="\', escape=False)\n    response.write(URL(\'static\',\'bootstrap/js/bootstrap.min.js\'))\n    response.write(\'"></script>\\n    <script src="//cdn.datatables.net/1.10.4/js/jquery.dataTables.min.js" type="text/javascript"></script>\\n    <script src="//cdn.datatables.net/plug-ins/9dcbecd42ad/integration/bootstrap/3/dataTables.bootstrap.js" type="text/javascript"></script>\\n</body>\\n</html>\\n\\n\', escape=False)'
p7
sS'snapshot'
p8
(dp9
sS'traceback'
p10
S'None\n'
p11
s.