(dp1
S'output'
p2
S"<type 'exceptions.NameError'> name 'lista' is not defined"
p3
sS'layer'
p4
S'/home/tazjel/zweb2py/applications/belot/views/game/info.html'
p5
sS'code'
p6
S'response.write(\'<!DOCTYPE html>\\n<head>\\n<title>\', escape=False)\nresponse.write(response.title or request.application)\nresponse.write(\'</title>\\n  <meta charset="utf-8" />\\n  <meta name="application-name" content="\', escape=False)\nresponse.write(request.application)\nresponse.write(\'" />\\n  <meta name="viewport" content="width=device-width, initial-scale=1.0" />\\n  <link rel="shortcut icon" href="\', escape=False)\nresponse.write(URL(\'static\',\'images/favicon.ico\'))\nresponse.write(\'" type="image/x-icon">\\n  <link rel="apple-touch-icon" href="\', escape=False)\nresponse.write(URL(\'static\',\'images/favicon.png\'))\nresponse.write(\'">\\n\\n  <!-- include stylesheets -->\\n  <script src="\', escape=False)\nresponse.write(URL("static","js/jquery.js"))\nresponse.write(\'" type="text/javascript"></script>\\n  <link href="\', escape=False)\nresponse.write(URL("static","bootstrap/css/bootstrap.min.css"))\nresponse.write(\'" rel="stylesheet" type="text/css">\\n  <link href="\', escape=False)\nresponse.write(URL("static","css/assassins.css"))\nresponse.write(\'" rel="stylesheet" type="text/css">\\n  <link href="//cdn.datatables.net/plug-ins/9dcbecd42ad/integration/bootstrap/3/dataTables.bootstrap.css" rel="stylesheet" type="text/css">\\n\\n</head>\\n\\n<body>\\n    \', escape=False)\nresponse.write(\'<header class="navbar navbar-static-top navbar-inverse hidden-xs">\\n  <div class="container-fluid">\\n    <div class="navbar-header">\\n      <div class="navbar-brand">\\n        <img class="splatter" src="\', escape=False)\nresponse.write(URL(\'static\',\'img/splatter.png\'))\nresponse.write(\'">\\n        <span>Assassins</span>\\n      </div>\\n    </div>\\n    \', escape=False)\nresponse.write(\'<nav class="collapse navbar-collapse bs-navbar-collapse" role="navigation">\\n    <ul class="nav navbar-nav">\\n        \', escape=False)\nif auth.user:\n    response.write(\'\\n            <li><a href="\', escape=False)\n    response.write(URL(\'game\',\'current\'))\n    response.write(\'">My current games</a></li>\\n            <li><a href="\', escape=False)\n    response.write(URL(\'findgame\',\'index\'))\n    response.write(\'">Find a game</a></li>\\n            <li><a href="\', escape=False)\n    response.write(URL(\'creategame\',\'index\'))\n    response.write(\'">Create a game</a></li>\\n            <li class="visible-xs"><a href="\', escape=False)\n    response.write(URL(\'default\',\'profile\'))\n    response.write(\'">\', escape=False)\n    response.write(auth.user.name)\n    response.write(\'\\\'s profile</a></li>\\n            <li class="visible-xs"><a href="\', escape=False)\n    response.write(URL(\'default\',\'changepassword\'))\n    response.write(\'">Change password</a></li>\\n            <li class="visible-xs"><a href="\', escape=False)\n    response.write(URL(\'default\',\'user\', args = [\'logout\']))\n    response.write(\'">Log out</a></li>\\n        \', escape=False)\nelse:\n    response.write(\'\\n            <li class="visible-xs"><a href="\', escape=False)\n    response.write(URL(\'default\',\'login\'))\n    response.write(\'">Log in</a></li>\\n            <li class="visible-xs"><a href="\', escape=False)\n    response.write(URL(\'default\',\'register\'))\n    response.write(\'">Register</a></li>\\n        \', escape=False)\n    pass\nresponse.write(\'        \\n    </ul>\\n    <ul class="nav navbar-nav navbar-right hidden-xs">\\n        \', escape=False)\nif auth.user:\n    response.write(\'\\n            <li class="dropdown">\\n                <a href="#" class="dropdown-toggle" data-toggle="dropdown" role="button" aria-expanded="true">\', escape=False)\n    response.write(auth.user.name)\n    response.write(\' <span class="caret"></span></a>\\n                <ul class="dropdown-menu" role="menu">\\n                    <li><a href="\', escape=False)\n    response.write(URL(\'default\',\'profile\'))\n    response.write(\'">Profile</a></li>\\n                    <li><a href="\', escape=False)\n    response.write(URL(\'default\',\'changepassword\'))\n    response.write(\'">Change password</a></li>\\n                    <li class="divider"></li>\\n                    <li><a href="\', escape=False)\n    response.write(URL(\'default\',\'user\', args = [\'logout\']))\n    response.write(\'">Log out</a></li>\\n                </ul>\\n            </li>\\n        \', escape=False)\nelse:\n    response.write(\'\\n            <li><a href="\', escape=False)\n    response.write(URL(\'default\',\'login\'))\n    response.write(\'">Log in</a></li>\\n            <li><a href="\', escape=False)\n    response.write(URL(\'default\',\'register\'))\n    response.write(\'">Register</a></li>\\n        \', escape=False)\n    pass\nresponse.write(\'\\n    </ul>\\n</nav>\', escape=False)\nresponse.write(\'\\n  </div>\\n</header>\\n\\n<header class="navbar navbar-static-top navbar-inverse visible-xs" data-toggle="collapse" data-target=".bs-navbar-collapse">\\n  <div class="container-fluid">\\n    <div class="navbar-header">\\n      <button class="navbar-toggle collapsed" type="button">\\n        <span class="sr-only">Toggle navigation</span>\\n        <span class="icon-bar"></span>\\n        <span class="icon-bar"></span>\\n        <span class="icon-bar"></span>\\n      </button>\\n      <div class="navbar-brand">\\n        <img class="splatter" src="\', escape=False)\nresponse.write(URL(\'static\',\'img/splatter.png\'))\nresponse.write(\'">\\n        <span>Assassins</span>\\n      </div>\\n    </div>\\n    \', escape=False)\nresponse.write(\'<nav class="collapse navbar-collapse bs-navbar-collapse" role="navigation">\\n    <ul class="nav navbar-nav">\\n        \', escape=False)\nif auth.user:\n    response.write(\'\\n            <li><a href="\', escape=False)\n    response.write(URL(\'game\',\'current\'))\n    response.write(\'">My current games</a></li>\\n            <li><a href="\', escape=False)\n    response.write(URL(\'findgame\',\'index\'))\n    response.write(\'">Find a game</a></li>\\n            <li><a href="\', escape=False)\n    response.write(URL(\'creategame\',\'index\'))\n    response.write(\'">Create a game</a></li>\\n            <li class="visible-xs"><a href="\', escape=False)\n    response.write(URL(\'default\',\'profile\'))\n    response.write(\'">\', escape=False)\n    response.write(auth.user.name)\n    response.write(\'\\\'s profile</a></li>\\n            <li class="visible-xs"><a href="\', escape=False)\n    response.write(URL(\'default\',\'changepassword\'))\n    response.write(\'">Change password</a></li>\\n            <li class="visible-xs"><a href="\', escape=False)\n    response.write(URL(\'default\',\'user\', args = [\'logout\']))\n    response.write(\'">Log out</a></li>\\n        \', escape=False)\nelse:\n    response.write(\'\\n            <li class="visible-xs"><a href="\', escape=False)\n    response.write(URL(\'default\',\'login\'))\n    response.write(\'">Log in</a></li>\\n            <li class="visible-xs"><a href="\', escape=False)\n    response.write(URL(\'default\',\'register\'))\n    response.write(\'">Register</a></li>\\n        \', escape=False)\n    pass\nresponse.write(\'        \\n    </ul>\\n    <ul class="nav navbar-nav navbar-right hidden-xs">\\n        \', escape=False)\nif auth.user:\n    response.write(\'\\n            <li class="dropdown">\\n                <a href="#" class="dropdown-toggle" data-toggle="dropdown" role="button" aria-expanded="true">\', escape=False)\n    response.write(auth.user.name)\n    response.write(\' <span class="caret"></span></a>\\n                <ul class="dropdown-menu" role="menu">\\n                    <li><a href="\', escape=False)\n    response.write(URL(\'default\',\'profile\'))\n    response.write(\'">Profile</a></li>\\n                    <li><a href="\', escape=False)\n    response.write(URL(\'default\',\'changepassword\'))\n    response.write(\'">Change password</a></li>\\n                    <li class="divider"></li>\\n                    <li><a href="\', escape=False)\n    response.write(URL(\'default\',\'user\', args = [\'logout\']))\n    response.write(\'">Log out</a></li>\\n                </ul>\\n            </li>\\n        \', escape=False)\nelse:\n    response.write(\'\\n            <li><a href="\', escape=False)\n    response.write(URL(\'default\',\'login\'))\n    response.write(\'">Log in</a></li>\\n            <li><a href="\', escape=False)\n    response.write(URL(\'default\',\'register\'))\n    response.write(\'">Register</a></li>\\n        \', escape=False)\n    pass\nresponse.write(\'\\n    </ul>\\n</nav>\', escape=False)\nresponse.write(\'\\n  </div>\\n</header>\', escape=False)\nresponse.write(\'\\n    \', escape=False)\nresponse.write(\'\\n<div class="container-fluid content">\\n    \', escape=False)\nresponse.write(\'\\n\\n      <script src="\', escape=False)\nresponse.write(URL(\'static\',\'js/belot.js\'))\nresponse.write(\'"></script>\\n\\n      <script src="\', escape=False)\nresponse.write(URL(\'static\',\'js/jq.js\'))\nresponse.write(\'"></script>\\n\\n\\n\\n\\n\', escape=False)\nfrom deck import Deck\nresponse.write(\'\\n\', escape=False)\nfrom players.playerRandomPlayableCards import PlayerRandomPlayableCards\nresponse.write(\'\\n\', escape=False)\nfrom players.playerDummy import PlayerDummy\nresponse.write(\'\\n\', escape=False)\nfrom order import Order\nresponse.write(\'\\n\', escape=False)\nfrom game import Game\nresponse.write(\'\\n\\n\', escape=False)\ndeck = Deck()\nresponse.write(\'\\n\', escape=False)\norder = Order()\nresponse.write(\'\\n\\n\', escape=False)\nP1_hand = []\nresponse.write(\'\\n\\n\', escape=False)\nP0_hand = []\nresponse.write(\'\\n\\n\', escape=False)\ncards = [(c[0], c[1]) for c in itertools.product(range(7, 15), [\'H\', \'D\', \'S\', \'C\'])]\nresponse.write(\'\\n\', escape=False)\nrandom.shuffle(cards)\nresponse.write(\'\\n\\n\', escape=False)\nP0_hand.append(cards[:5])\nresponse.write(\'\\n\', escape=False)\nP1_hand.append(cards[5:10])\nresponse.write(\'\\n\\n\', escape=False)\nplayer_1 = PlayerRandomPlayableCards("player_1", 1, 1)\nresponse.write(\'\\n\', escape=False)\nplayer_2 = PlayerRandomPlayableCards("player_2", 2, 2)\nresponse.write(\'\\n\', escape=False)\nplayer_3 = PlayerRandomPlayableCards("player_3", 3, 1)\nresponse.write(\'\\n\', escape=False)\nplayer_4 = PlayerRandomPlayableCards("player_4", 4, 2)\nresponse.write(\'\\n\\n\', escape=False)\nend, v1, v2, con = Game(player_1, player_2, player_3, player_4, deck).display_loot()\nresponse.write(\'\\n\\n<style> img.bottom { vertical-align: text-bottom; } </style>\\n\\n\\n<!-- \', escape=False)\nfor ll in P0_hand:\n    response.write(\' -->\\n\\n<!-- \', escape=False)\n    for hh in ll:\n        response.write(\' -->\\n<!--      <img src=\', escape=False)\n        response.write(URL(\'static\',\'images\',args=\'images/%s\' %CARDS[hh]))\n        response.write(\' alt="golem"class=bottom> -->\\n\\n<!-- \', escape=False)\n        pass\n    response.write(\' -->\\n\\n<!-- \', escape=False)\n    pass\nresponse.write(\' -->\\n\\n\', escape=False)\nfrom gluon.contrib.markdown import markdown2\nresponse.write(\'\\n\\n\', escape=False)\nresponse.write(LOAD("game","_playerinfo", args=[game.id]))\nresponse.write(\'\\n\\n\', escape=False)\nresponse.write(LOAD("game","_gamebuttons", args=[game.id]))\nresponse.write(\'\\n<h1>\', escape=False)\nresponse.write(game.name)\nresponse.write(\'</h1>\\n<h4>\', escape=False)\nresponse.write(game.status_id.description)\nresponse.write(\'</h4>\\n<hr>\\n\', escape=False)\nresponse.write(XML(markdown2.markdown(game.description)))\nresponse.write(\'\\n<h4>Players</h4>\\n\', escape=False)\nfor player in players:\n    response.write(\'\\n    <span class="\', escape=False)\n    response.write(player.role_id.name)\n    response.write(\' \', escape=False)\n    response.write(player.status_id.name)\n    response.write(\'">\', escape=False)\n    response.write(player.user_id.name)\n    response.write(\'</span><br>\\n\', escape=False)\n    pass\nresponse.write(\'\\n\\n\', escape=False)\nresponse.write(LOAD("game","_deal_btn", args=[game.id]))\nresponse.write(\'\\n\\n\', escape=False)\nresponse.write(LOAD("game","_playerinfo", args=[game.id]))\nresponse.write(\'\\n\\n<div>\\n\\t\', escape=False)\nresponse.write(v1)\nresponse.write(\'\\n\\n</div> \\n<div>\\n\\t\', escape=False)\nresponse.write(v2)\nresponse.write(\'\\n\\n</div> \\n</br>\\n</br>\\n\\xd9\\x84\\xd9\\x86\\xd8\\xa7 \\n\\n\', escape=False)\nresponse.write(v1)\nresponse.write(\'\\n</br>\\n</br>\\n\\xd9\\x84\\xd9\\x87\\xd9\\x85 \', escape=False)\nresponse.write(v2)\nresponse.write(\'\\n\\n</br>\\n</br>\\n\\n\', escape=False)\nresponse.write(end)\nresponse.write(\'\\n\\n\\n</br>\\n</br>\\n\\xd8\\xa7\\xd9\\x84\\xd9\\x86\\xd8\\xaa\\xd9\\x8a\\xd8\\xac\\xd8\\xa9\\n\', escape=False)\nresponse.write(con)\nresponse.write(\'\\n\\n\', escape=False)\nfor item in lista:\n    response.write(\'\\n                        \', escape=False)\n    response.write(XML(item))\n    response.write(\'\\n                    \', escape=False)\n    pass\nresponse.write(\'\\n\', escape=False)\nresponse.write(\'\\n</div>\', escape=False)\nresponse.write(\'\\n    <script src="\', escape=False)\nresponse.write(URL(\'static\',\'bootstrap/js/bootstrap.min.js\'))\nresponse.write(\'"></script>\\n    <script src="//cdn.datatables.net/1.10.4/js/jquery.dataTables.min.js" type="text/javascript"></script>\\n    <script src="//cdn.datatables.net/plug-ins/9dcbecd42ad/integration/bootstrap/3/dataTables.bootstrap.js" type="text/javascript"></script>\\n</body>\\n</html>\\n\\n\', escape=False)'
p7
sS'snapshot'
p8
(dp9
S'exception'
p10
(dp11
S'__hash__'
p12
S"<method-wrapper '__hash__' of exceptions.NameError object>"
p13
sS'__setattr__'
p14
S"<method-wrapper '__setattr__' of exceptions.NameError object>"
p15
sS'__reduce_ex__'
p16
S'<built-in method __reduce_ex__ of exceptions.NameError object>'
p17
sS'__getslice__'
p18
S"<method-wrapper '__getslice__' of exceptions.NameError object>"
p19
sS'__getitem__'
p20
S"<method-wrapper '__getitem__' of exceptions.NameError object>"
p21
sS'__setstate__'
p22
S'<built-in method __setstate__ of exceptions.NameError object>'
p23
sS'args'
p24
S'("name \'lista\' is not defined",)'
p25
sS'__reduce__'
p26
S'<built-in method __reduce__ of exceptions.NameError object>'
p27
sS'__str__'
p28
S"<method-wrapper '__str__' of exceptions.NameError object>"
p29
sS'__format__'
p30
S'<built-in method __format__ of exceptions.NameError object>'
p31
sS'__getattribute__'
p32
S"<method-wrapper '__getattribute__' of exceptions.NameError object>"
p33
sS'__class__'
p34
S"<type 'exceptions.NameError'>"
p35
sS'__unicode__'
p36
S'<built-in method __unicode__ of exceptions.NameError object>'
p37
sS'__delattr__'
p38
S"<method-wrapper '__delattr__' of exceptions.NameError object>"
p39
sS'__subclasshook__'
p40
S'<built-in method __subclasshook__ of type object>'
p41
sS'__repr__'
p42
S"<method-wrapper '__repr__' of exceptions.NameError object>"
p43
sS'__dict__'
p44
S'{}'
p45
sS'__sizeof__'
p46
S'<built-in method __sizeof__ of exceptions.NameError object>'
p47
sS'__doc__'
p48
S"'Name not found globally.'"
p49
sS'__init__'
p50
S"<method-wrapper '__init__' of exceptions.NameError object>"
p51
sS'__new__'
p52
S'<built-in method __new__ of type object>'
p53
ssS'evalue'
p54
S"name 'lista' is not defined"
p55
sS'request'
p56
cgluon.html
XML_unpickle
p57
(S's\nR\x00\x00<div><table><tr><td style="font-weight:bold;vertical-align:top;">ajax</td><td style="vertical-align:top;">:</td><td><div>False</div></td></tr><tr><td style="font-weight:bold;vertical-align:top;">application</td><td style="vertical-align:top;">:</td><td><div>belot</div></td></tr><tr><td style="font-weight:bold;vertical-align:top;">args</td><td style="vertical-align:top;">:</td><td><div><table><tr><td><div>16</div></td></tr></table></div></td></tr><tr><td style="font-weight:bold;vertical-align:top;">cid</td><td style="vertical-align:top;">:</td><td><div>None</div></td></tr><tr><td style="font-weight:bold;vertical-align:top;">client</td><td style="vertical-align:top;">:</td><td><div>188.54.204.46</div></td></tr><tr><td style="font-weight:bold;vertical-align:top;">controller</td><td style="vertical-align:top;">:</td><td><div>game</div></td></tr><tr><td style="font-weight:bold;vertical-align:top;">cookies</td><td style="vertical-align:top;">:</td><td><div><table><tr><td style="font-weight:bold;vertical-align:top;">session_id_admin</td><td style="vertical-align:top;">:</td><td><div>188.54.204.46-9c1208fe-85ee-4e45-ae9b-b03dc37e5c86<table><tr><td style="font-weight:bold;vertical-align:top;">comment</td><td style="vertical-align:top;">:</td><td><div></div></td></tr><tr><td style="font-weight:bold;vertical-align:top;">domain</td><td style="vertical-align:top;">:</td><td><div></div></td></tr><tr><td style="font-weight:bold;vertical-align:top;">expires</td><td style="vertical-align:top;">:</td><td><div></div></td></tr><tr><td style="font-weight:bold;vertical-align:top;">httponly</td><td style="vertical-align:top;">:</td><td><div></div></td></tr><tr><td style="font-weight:bold;vertical-align:top;">max-age</td><td style="vertical-align:top;">:</td><td><div></div></td></tr><tr><td style="font-weight:bold;vertical-align:top;">path</td><td style="vertical-align:top;">:</td><td><div></div></td></tr><tr><td style="font-weight:bold;vertical-align:top;">secure</td><td style="vertical-align:top;">:</td><td><div></div></td></tr><tr><td style="font-weight:bold;vertical-align:top;">version</td><td style="vertical-align:top;">:</td><td><div></div></td></tr></table></div></td></tr><tr><td style="font-weight:bold;vertical-align:top;">session_id_belot</td><td style="vertical-align:top;">:</td><td><div>90.148.254.1-c66c78da-5831-4217-88df-a4d7596a6e1d<table><tr><td style="font-weight:bold;vertical-align:top;">comment</td><td style="vertical-align:top;">:</td><td><div></div></td></tr><tr><td style="font-weight:bold;vertical-align:top;">domain</td><td style="vertical-align:top;">:</td><td><div></div></td></tr><tr><td style="font-weight:bold;vertical-align:top;">expires</td><td style="vertical-align:top;">:</td><td><div></div></td></tr><tr><td style="font-weight:bold;vertical-align:top;">httponly</td><td style="vertical-align:top;">:</td><td><div></div></td></tr><tr><td style="font-weight:bold;vertical-align:top;">max-age</td><td style="vertical-align:top;">:</td><td><div></div></td></tr><tr><td style="font-weight:bold;vertical-align:top;">path</td><td style="vertical-align:top;">:</td><td><div></div></td></tr><tr><td style="font-weight:bold;vertical-align:top;">secure</td><td style="vertical-align:top;">:</td><td><div></div></td></tr><tr><td style="font-weight:bold;vertical-align:top;">version</td><td style="vertical-align:top;">:</td><td><div></div></td></tr></table></div></td></tr></table></div></td></tr><tr><td style="font-weight:bold;vertical-align:top;">env</td><td style="vertical-align:top;">:</td><td><div><table><tr><td style="font-weight:bold;vertical-align:top;">CONTENT_LENGTH</td><td style="vertical-align:top;">:</td><td><div></div></td></tr><tr><td style="font-weight:bold;vertical-align:top;">CONTENT_TYPE</td><td style="vertical-align:top;">:</td><td><div></div></td></tr><tr><td style="font-weight:bold;vertical-align:top;">DOCUMENT_ROOT</td><td style="vertical-align:top;">:</td><td><div>/usr/local/openresty/nginx/html</div></td></tr><tr><td style="font-weight:bold;vertical-align:top;">HTTPS</td><td style="vertical-align:top;">:</td><td><div>on</div></td></tr><tr><td style="font-weight:bold;vertical-align:top;">HTTP_ACCEPT</td><td style="vertical-align:top;">:</td><td><div>text/html,application/xhtml+xml,application/xml;q=0.9,image/webp,*/*;q=0.8</div></td></tr><tr><td style="font-weight:bold;vertical-align:top;">HTTP_ACCEPT_ENCODING</td><td style="vertical-align:top;">:</td><td><div>gzip, deflate, sdch, br</div></td></tr><tr><td style="font-weight:bold;vertical-align:top;">HTTP_ACCEPT_LANGUAGE</td><td style="vertical-align:top;">:</td><td><div>ar,en-GB;q=0.8,en;q=0.6</div></td></tr><tr><td style="font-weight:bold;vertical-align:top;">HTTP_CONNECTION</td><td style="vertical-align:top;">:</td><td><div>close</div></td></tr><tr><td style="font-weight:bold;vertical-align:top;">HTTP_COOKIE</td><td style="vertical-align:top;">:</td><td><div>_ga=GA1.2.1675182600.1470181097; session_id_admin=188.54.204.46-9c1208fe-85ee-4e45-ae9b-b03dc37e5c86; session_id_belot=90.148.254.1-c66c78da-5831-4217-88df-a4d7596a6e1d</div></td></tr><tr><td style="font-weight:bold;vertical-align:top;">HTTP_HOST</td><td style="vertical-align:top;">:</td><td><div>tazjel.pythonanywhere.com</div></td></tr><tr><td style="font-weight:bold;vertical-align:top;">HTTP_REFERER</td><td style="vertical-align:top;">:</td><td><div>https://tazjel.pythonanywhere.com/belot/game/current</div></td></tr><tr><td style="font-weight:bold;vertical-align:top;">HTTP_UPGRADE_INSECURE_REQUESTS</td><td style="vertical-align:top;">:</td><td><div>1</div></td></tr><tr><td style="font-weight:bold;vertical-align:top;">HTTP_USER_AGENT</td><td style="vertical-align:top;">:</td><td><div>Mozilla/5.0 (Windows NT 10.0; Win64; x64) AppleWebKit/537.36 (KHTML, like Gecko) Chrome/53.0.2785.143 Safari/537.36</div></td></tr><tr><td style="font-weight:bold;vertical-align:top;">HTTP_X_FORWARDED_FOR</td><td style="vertical-align:top;">:</td><td><div>188.54.204.46</div></td></tr><tr><td style="font-weight:bold;vertical-align:top;">HTTP_X_REAL_IP</td><td style="vertical-align:top;">:</td><td><div>188.54.204.46</div></td></tr><tr><td style="font-weight:bold;vertical-align:top;">PATH_INFO</td><td style="vertical-align:top;">:</td><td><div>/belot/game/info/16</div></td></tr><tr><td style="font-weight:bold;vertical-align:top;">QUERY_STRING</td><td style="vertical-align:top;">:</td><td><div></div></td></tr><tr><td style="font-weight:bold;vertical-align:top;">REMOTE_ADDR</td><td style="vertical-align:top;">:</td><td><div>10.203.197.75</div></td></tr><tr><td style="font-weight:bold;vertical-align:top;">REMOTE_PORT</td><td style="vertical-align:top;">:</td><td><div>58833</div></td></tr><tr><td style="font-weight:bold;vertical-align:top;">REQUEST_METHOD</td><td style="vertical-align:top;">:</td><td><div>GET</div></td></tr><tr><td style="font-weight:bold;vertical-align:top;">REQUEST_URI</td><td style="vertical-align:top;">:</td><td><div>/belot/game/info/16</div></td></tr><tr><td style="font-weight:bold;vertical-align:top;">SCRIPT_NAME</td><td style="vertical-align:top;">:</td><td><div></div></td></tr><tr><td style="font-weight:bold;vertical-align:top;">SERVER_NAME</td><td style="vertical-align:top;">:</td><td><div>tazjel.pythonanywhere.com</div></td></tr><tr><td style="font-weight:bold;vertical-align:top;">SERVER_PORT</td><td style="vertical-align:top;">:</td><td><div>443</div></td></tr><tr><td style="font-weight:bold;vertical-align:top;">SERVER_PROTOCOL</td><td style="vertical-align:top;">:</td><td><div>HTTP/1.1</div></td></tr><tr><td style="font-weight:bold;vertical-align:top;">app_folders</td><td style="vertical-align:top;">:</td><td><div>set([&#x27;/home/tazjel/zweb2py/applications/admin/&#x27;, &#x27;/home/tazjel/zweb2py/applications/welcome/&#x27;, &#x27;/home/tazjel/zweb2py/applications/belot/&#x27;])</div></td></tr><tr><td style="font-weight:bold;vertical-align:top;">applications_parent</td><td style="vertical-align:top;">:</td><td><div>/home/tazjel/zweb2py</div></td></tr><tr><td style="font-weight:bold;vertical-align:top;">content_length</td><td style="vertical-align:top;">:</td><td><div></div></td></tr><tr><td style="font-weight:bold;vertical-align:top;">content_type</td><td style="vertical-align:top;">:</td><td><div></div></td></tr><tr><td style="font-weight:bold;vertical-align:top;">db_sessions</td><td style="vertical-align:top;">:</td><td><div>set([])</div></td></tr><tr><td style="font-weight:bold;vertical-align:top;">debugging</td><td style="vertical-align:top;">:</td><td><div>True</div></td></tr><tr><td style="font-weight:bold;vertical-align:top;">document_root</td><td style="vertical-align:top;">:</td><td><div>/usr/local/openresty/nginx/html</div></td></tr><tr><td style="font-weight:bold;vertical-align:top;">gluon_parent</td><td style="vertical-align:top;">:</td><td><div>/home/tazjel/zweb2py</div></td></tr><tr><td style="font-weight:bold;vertical-align:top;">http_accept</td><td style="vertical-align:top;">:</td><td><div>text/html,application/xhtml+xml,application/xml;q=0.9,image/webp,*/*;q=0.8</div></td></tr><tr><td style="font-weight:bold;vertical-align:top;">http_accept_encoding</td><td style="vertical-align:top;">:</td><td><div>gzip, deflate, sdch, br</div></td></tr><tr><td style="font-weight:bold;vertical-align:top;">http_accept_language</td><td style="vertical-align:top;">:</td><td><div>ar,en-GB;q=0.8,en;q=0.6</div></td></tr><tr><td style="font-weight:bold;vertical-align:top;">http_connection</td><td style="vertical-align:top;">:</td><td><div>close</div></td></tr><tr><td style="font-weight:bold;vertical-align:top;">http_cookie</td><td style="vertical-align:top;">:</td><td><div>_ga=GA1.2.1675182600.1470181097; session_id_admin=188.54.204.46-9c1208fe-85ee-4e45-ae9b-b03dc37e5c86; session_id_belot=90.148.254.1-c66c78da-5831-4217-88df-a4d7596a6e1d</div></td></tr><tr><td style="font-weight:bold;vertical-align:top;">http_host</td><td style="vertical-align:top;">:</td><td><div>tazjel.pythonanywhere.com</div></td></tr><tr><td style="font-weight:bold;vertical-align:top;">http_referer</td><td style="vertical-align:top;">:</td><td><div>https://tazjel.pythonanywhere.com/belot/game/current</div></td></tr><tr><td style="font-weight:bold;vertical-align:top;">http_upgrade_insecure_requests</td><td style="vertical-align:top;">:</td><td><div>1</div></td></tr><tr><td style="font-weight:bold;vertical-align:top;">http_user_agent</td><td style="vertical-align:top;">:</td><td><div>Mozilla/5.0 (Windows NT 10.0; Win64; x64) AppleWebKit/537.36 (KHTML, like Gecko) Chrome/53.0.2785.143 Safari/537.36</div></td></tr><tr><td style="font-weight:bold;vertical-align:top;">http_x_forwarded_for</td><td style="vertical-align:top;">:</td><td><div>188.54.204.46</div></td></tr><tr><td style="font-weight:bold;vertical-align:top;">http_x_real_ip</td><td style="vertical-align:top;">:</td><td><div>188.54.204.46</div></td></tr><tr><td style="font-weight:bold;vertical-align:top;">https</td><td style="vertical-align:top;">:</td><td><div>on</div></td></tr><tr><td style="font-weight:bold;vertical-align:top;">is_jython</td><td style="vertical-align:top;">:</td><td><div>False</div></td></tr><tr><td style="font-weight:bold;vertical-align:top;">is_pypy</td><td style="vertical-align:top;">:</td><td><div>False</div></td></tr><tr><td style="font-weight:bold;vertical-align:top;">is_source</td><td style="vertical-align:top;">:</td><td><div>True</div></td></tr><tr><td style="font-weight:bold;vertical-align:top;">local_hosts</td><td style="vertical-align:top;">:</td><td><div><table><tr><td><div>tazjel.pythonanywhere.com</div></td></tr><tr><td><div>giles-liveweb2</div></td></tr><tr><td><div>::ffff:127.0.0.1</div></td></tr><tr><td><div>::1</div></td></tr><tr><td><div>50.19.109.98</div></td></tr><tr><td><div>localhost</div></td></tr><tr><td><div>127.0.0.1</div></td></tr></table></div></td></tr><tr><td style="font-weight:bold;vertical-align:top;">path_info</td><td style="vertical-align:top;">:</td><td><div>/belot/game/info/16</div></td></tr><tr><td style="font-weight:bold;vertical-align:top;">query_string</td><td style="vertical-align:top;">:</td><td><div></div></td></tr><tr><td style="font-weight:bold;vertical-align:top;">remote_addr</td><td style="vertical-align:top;">:</td><td><div>10.203.197.75</div></td></tr><tr><td style="font-weight:bold;vertical-align:top;">remote_port</td><td style="vertical-align:top;">:</td><td><div>58833</div></td></tr><tr><td style="font-weight:bold;vertical-align:top;">request_method</td><td style="vertical-align:top;">:</td><td><div>GET</div></td></tr><tr><td style="font-weight:bold;vertical-align:top;">request_uri</td><td style="vertical-align:top;">:</td><td><div>/belot/game/info/16</div></td></tr><tr><td style="font-weight:bold;vertical-align:top;">script_name</td><td style="vertical-align:top;">:</td><td><div></div></td></tr><tr><td style="font-weight:bold;vertical-align:top;">server_name</td><td style="vertical-align:top;">:</td><td><div>tazjel.pythonanywhere.com</div></td></tr><tr><td style="font-weight:bold;vertical-align:top;">server_port</td><td style="vertical-align:top;">:</td><td><div>443</div></td></tr><tr><td style="font-weight:bold;vertical-align:top;">server_protocol</td><td style="vertical-align:top;">:</td><td><div>HTTP/1.1</div></td></tr><tr><td style="font-weight:bold;vertical-align:top;">uwsgi.node</td><td style="vertical-align:top;">:</td><td><div>giles-liveweb2</div></td></tr><tr><td style="font-weight:bold;vertical-align:top;">uwsgi.version</td><td style="vertical-align:top;">:</td><td><div>2.0.5.1</div></td></tr><tr><td style="font-weight:bold;vertical-align:top;">uwsgi_node</td><td style="vertical-align:top;">:</td><td><div>giles-liveweb2</div></td></tr><tr><td style="font-weight:bold;vertical-align:top;">uwsgi_version</td><td style="vertical-align:top;">:</td><td><div>2.0.5.1</div></td></tr><tr><td style="font-weight:bold;vertical-align:top;">web2py_path</td><td style="vertical-align:top;">:</td><td><div>/home/tazjel/zweb2py</div></td></tr><tr><td style="font-weight:bold;vertical-align:top;">web2py_version</td><td style="vertical-align:top;">:</td><td><div>2.14.6-stable+timestamp.2016.05.10.00.21.47</div></td></tr><tr><td style="font-weight:bold;vertical-align:top;">wsgi.errors</td><td style="vertical-align:top;">:</td><td><div>&lt;uwsgi_file__bin_user_wsgi_wrapper.ErrorLogFile object at 0x7fc569eaa2d0&gt;</div></td></tr><tr><td style="font-weight:bold;vertical-align:top;">wsgi.file_wrapper</td><td style="vertical-align:top;">:</td><td><div>&lt;built-in function uwsgi_sendfile&gt;</div></td></tr><tr><td style="font-weight:bold;vertical-align:top;">wsgi.input</td><td style="vertical-align:top;">:</td><td><div>&lt;uwsgi._Input object at 0x7fc5743c0f48&gt;</div></td></tr><tr><td style="font-weight:bold;vertical-align:top;">wsgi.multiprocess</td><td style="vertical-align:top;">:</td><td><div>True</div></td></tr><tr><td style="font-weight:bold;vertical-align:top;">wsgi.multithread</td><td style="vertical-align:top;">:</td><td><div>False</div></td></tr><tr><td style="font-weight:bold;vertical-align:top;">wsgi.run_once</td><td style="vertical-align:top;">:</td><td><div>False</div></td></tr><tr><td style="font-weight:bold;vertical-align:top;">wsgi.url_scheme</td><td style="vertical-align:top;">:</td><td><div>https</div></td></tr><tr><td style="font-weight:bold;vertical-align:top;">wsgi.version</td><td style="vertical-align:top;">:</td><td><div><table><tr><td><div>1</div></td></tr><tr><td><div>0</div></td></tr></table></div></td></tr><tr><td style="font-weight:bold;vertical-align:top;">wsgi_errors</td><td style="vertical-align:top;">:</td><td><div>&lt;uwsgi_file__bin_user_wsgi_wrapper.ErrorLogFile object at 0x7fc569eaa2d0&gt;</div></td></tr><tr><td style="font-weight:bold;vertical-align:top;">wsgi_file_wrapper</td><td style="vertical-align:top;">:</td><td><div>&lt;built-in function uwsgi_sendfile&gt;</div></td></tr><tr><td style="font-weight:bold;vertical-align:top;">wsgi_input</td><td style="vertical-align:top;">:</td><td><div>&lt;uwsgi._Input object at 0x7fc5743c0f48&gt;</div></td></tr><tr><td style="font-weight:bold;vertical-align:top;">wsgi_multiprocess</td><td style="vertical-align:top;">:</td><td><div>True</div></td></tr><tr><td style="font-weight:bold;vertical-align:top;">wsgi_multithread</td><td style="vertical-align:top;">:</td><td><div>False</div></td></tr><tr><td style="font-weight:bold;vertical-align:top;">wsgi_run_once</td><td style="vertical-align:top;">:</td><td><div>False</div></td></tr><tr><td style="font-weight:bold;vertical-align:top;">wsgi_url_scheme</td><td style="vertical-align:top;">:</td><td><div>https</div></td></tr><tr><td style="font-weight:bold;vertical-align:top;">wsgi_version</td><td style="vertical-align:top;">:</td><td><div><table><tr><td><div>1</div></td></tr><tr><td><div>0</div></td></tr></table></div></td></tr></table></div></td></tr><tr><td style="font-weight:bold;vertical-align:top;">extension</td><td style="vertical-align:top;">:</td><td><div>html</div></td></tr><tr><td style="font-weight:bold;vertical-align:top;">folder</td><td style="vertical-align:top;">:</td><td><div>/home/tazjel/zweb2py/applications/belot/</div></td></tr><tr><td style="font-weight:bold;vertical-align:top;">function</td><td style="vertical-align:top;">:</td><td><div>info</div></td></tr><tr><td style="font-weight:bold;vertical-align:top;">global_settings</td><td style="vertical-align:top;">:</td><td><div><table><tr><td style="font-weight:bold;vertical-align:top;">app_folders</td><td style="vertical-align:top;">:</td><td><div>set([&#x27;/home/tazjel/zweb2py/applications/admin/&#x27;, &#x27;/home/tazjel/zweb2py/applications/welcome/&#x27;, &#x27;/home/tazjel/zweb2py/applications/belot/&#x27;])</div></td></tr><tr><td style="font-weight:bold;vertical-align:top;">applications_parent</td><td style="vertical-align:top;">:</td><td><div>/home/tazjel/zweb2py</div></td></tr><tr><td style="font-weight:bold;vertical-align:top;">db_sessions</td><td style="vertical-align:top;">:</td><td><div>set([])</div></td></tr><tr><td style="font-weight:bold;vertical-align:top;">debugging</td><td style="vertical-align:top;">:</td><td><div>True</div></td></tr><tr><td style="font-weight:bold;vertical-align:top;">gluon_parent</td><td style="vertical-align:top;">:</td><td><div>/home/tazjel/zweb2py</div></td></tr><tr><td style="font-weight:bold;vertical-align:top;">is_jython</td><td style="vertical-align:top;">:</td><td><div>False</div></td></tr><tr><td style="font-weight:bold;vertical-align:top;">is_pypy</td><td style="vertical-align:top;">:</td><td><div>False</div></td></tr><tr><td style="font-weight:bold;vertical-align:top;">is_source</td><td style="vertical-align:top;">:</td><td><div>True</div></td></tr><tr><td style="font-weight:bold;vertical-align:top;">local_hosts</td><td style="vertical-align:top;">:</td><td><div><table><tr><td><div>tazjel.pythonanywhere.com</div></td></tr><tr><td><div>giles-liveweb2</div></td></tr><tr><td><div>::ffff:127.0.0.1</div></td></tr><tr><td><div>::1</div></td></tr><tr><td><div>50.19.109.98</div></td></tr><tr><td><div>localhost</div></td></tr><tr><td><div>127.0.0.1</div></td></tr></table></div></td></tr><tr><td style="font-weight:bold;vertical-align:top;">web2py_version</td><td style="vertical-align:top;">:</td><td><div>2.14.6-stable+timestamp.2016.05.10.00.21.47</div></td></tr></table></div></td></tr><tr><td style="font-weight:bold;vertical-align:top;">is_https</td><td style="vertical-align:top;">:</td><td><div>True</div></td></tr><tr><td style="font-weight:bold;vertical-align:top;">is_local</td><td style="vertical-align:top;">:</td><td><div>False</div></td></tr><tr><td style="font-weight:bold;vertical-align:top;">is_restful</td><td style="vertical-align:top;">:</td><td><div>False</div></td></tr><tr><td style="font-weight:bold;vertical-align:top;">is_scheduler</td><td style="vertical-align:top;">:</td><td><div>False</div></td></tr><tr><td style="font-weight:bold;vertical-align:top;">is_shell</td><td style="vertical-align:top;">:</td><td><div>False</div></td></tr><tr><td style="font-weight:bold;vertical-align:top;">now</td><td style="vertical-align:top;">:</td><td><div>datetime.datetime(2016, 10, 14, 22, 47, 6, 55812)</div></td></tr><tr><td style="font-weight:bold;vertical-align:top;">raw_args</td><td style="vertical-align:top;">:</td><td><div>16</div></td></tr><tr><td style="font-weight:bold;vertical-align:top;">raw_extension</td><td style="vertical-align:top;">:</td><td><div>None</div></td></tr><tr><td style="font-weight:bold;vertical-align:top;">url</td><td style="vertical-align:top;">:</td><td><div>/belot/game/info/16</div></td></tr><tr><td style="font-weight:bold;vertical-align:top;">utcnow</td><td style="vertical-align:top;">:</td><td><div>datetime.datetime(2016, 10, 14, 22, 47, 6, 55832)</div></td></tr><tr><td style="font-weight:bold;vertical-align:top;">wsgi</td><td style="vertical-align:top;">:</td><td><div>&lt;gluon.main.LazyWSGI object at 0x7fc557480650&gt;</div></td></tr></table></div>'
tRp58
sS'frames'
p59
(lp60
(dp61
S'file'
p62
S'/home/tazjel/zweb2py/gluon/restricted.py'
p63
sS'dump'
p64
(dp65
S'environment'
p66
S"{'A': <class 'gluon.html.A'>, 'ANY_OF': <class 'gluon.validators.ANY_OF'>, 'ASSIGNJS': <function ASSIGNJS>, 'Auth': <class 'gluon.tools.Auth'>, 'B': <class 'gluon.html.B'>, 'BEAUTIFY': <class 'gluon.html.BEAUTIFY'>, 'BODY': <class 'gluon.html.BODY'>, 'BR': <class 'gluon.html.BR'>, 'BUTTON': <class 'gluon.html.BUTTON'>, 'CARDS': {(7, 'C'): '7spatiq.png', (7, 'D'): '7karo.png', (7, 'H'): '7kupa.png', (7, 'S'): '7pika.png', (8, 'C'): '8spatiq.png', (8, 'D'): '8karo.png', (8, 'H'): '8kupa.png', (8, 'S'): '8pika.png', (9, 'C'): '9spatiq.png', (9, 'D'): '9karo.png', ...}, ...}"
p67
sS'ccode'
p68
S'<code object <module> at 0x7fc55c8dd930, file "/...applications/belot/views/game/info.html", line 1>'
p69
ssS'lnum'
p70
I227
sS'lines'
p71
(dp72
I224
S'            ccode = code'
p73
sI225
S'        else:'
p74
sI226
S'            ccode = compile2(code, layer)'
p75
sI227
S'        exec ccode in environment'
p76
sI228
S'    except HTTP:'
p77
sI229
S'        raise'
p78
sI230
S'    except RestrictedError:'
p79
sI231
S'        # do not encapsulate (obfuscate) the original RestrictedError'
p80
sI222
S'    try:'
p81
sI223
S'        if isinstance(code, types.CodeType):'
p82
ssS'call'
p83
S'(code=\'response.write(\\\'<!DOCTYPE html>\\\\n<head>\\\\n<title>..."></script>\\\\n</body>\\\\n</html>\\\\n\\\\n\\\', escape=False)\', environment={\'A\': <class \'gluon.html.A\'>, \'ANY_OF\': <class \'gluon.validators.ANY_OF\'>, \'ASSIGNJS\': <function ASSIGNJS>, \'Auth\': <class \'gluon.tools.Auth\'>, \'B\': <class \'gluon.html.B\'>, \'BEAUTIFY\': <class \'gluon.html.BEAUTIFY\'>, \'BODY\': <class \'gluon.html.BODY\'>, \'BR\': <class \'gluon.html.BR\'>, \'BUTTON\': <class \'gluon.html.BUTTON\'>, \'CARDS\': {(7, \'C\'): \'7spatiq.png\', (7, \'D\'): \'7karo.png\', (7, \'H\'): \'7kupa.png\', (7, \'S\'): \'7pika.png\', (8, \'C\'): \'8spatiq.png\', (8, \'D\'): \'8karo.png\', (8, \'H\'): \'8kupa.png\', (8, \'S\'): \'8pika.png\', (9, \'C\'): \'9spatiq.png\', (9, \'D\'): \'9karo.png\', ...}, ...}, layer=\'/home/tazjel/zweb2py/applications/belot/views/game/info.html\')'
p84
sS'func'
p85
S'restricted'
p86
sa(dp87
g62
S'/home/tazjel/zweb2py/applications/belot/views/game/info.html'
p88
sg64
(dp89
sg70
I200
sg71
(dp90
I192
S'response.write(v1)'
p91
sI193
S"response.write('\\n</br>\\n</br>\\n\\xd9\\x84\\xd9\\x87\\xd9\\x85 ', escape=False)"
p92
sI194
S'response.write(v2)'
p93
sI195
S"response.write('\\n\\n</br>\\n</br>\\n\\n', escape=False)"
p94
sI196
S'response.write(end)'
p95
sI197
S"response.write('\\n\\n\\n</br>\\n</br>\\n\\xd8\\xa7\\xd9\\x84\\xd9\\x86\\xd8\\xaa\\xd9\\x8a\\xd8\\xac\\xd8\\xa9\\n', escape=False)"
p96
sI198
S'response.write(con)'
p97
sI199
S"response.write('\\n\\n', escape=False)"
p98
sI200
S'for item in lista:'
p99
sI201
S"    response.write('\\n                        ', escape=False)"
p100
sI202
S'    response.write(XML(item))'
p101
sI203
S"    response.write('\\n                    ', escape=False)"
p102
sI204
S'    pass'
p103
sI205
S"response.write('\\n', escape=False)"
p104
sI206
S"response.write('\\n</div>', escape=False)"
p105
sI207
S'response.write(\'\\n    <script src="\', escape=False)'
p106
sI208
S"response.write(URL('static','bootstrap/js/bootstrap.min.js'))"
p107
sI209
S'response.write(\'"></script>\\n    <script src="//cdn.datatables.net/1.10.4/js/jquery.dataTables.min.js" type="text/javascript"></script>\\n    <script src="//cdn.datatables.net/plug-ins/9dcbecd42ad/integration/bootstrap/3/dataTables.bootstrap.js" type="text/javascript"></script>\\n</body>\\n</html>\\n\\n\', escape=False)'
p108
sI191
S"response.write('\\n\\n</div> \\n</br>\\n</br>\\n\\xd9\\x84\\xd9\\x86\\xd8\\xa7 \\n\\n', escape=False)"
p109
ssg83
S'()'
p110
sg85
S'<module>'
p111
sasS'pyver'
p112
S'Python 2.7.6: /usr/local/bin/uwsgi (prefix: /usr)'
p113
sS'session'
p114
g57
(S'sC\x0b\x00\x00<div><table><tr><td style="font-weight:bold;vertical-align:top;">auth</td><td style="vertical-align:top;">:</td><td><div><table><tr><td style="font-weight:bold;vertical-align:top;">expiration</td><td style="vertical-align:top;">:</td><td><div>2592000</div></td></tr><tr><td style="font-weight:bold;vertical-align:top;">hmac_key</td><td style="vertical-align:top;">:</td><td><div>5235ddbd-b535-4ca6-8b5b-ffaf81b4a658</div></td></tr><tr><td style="font-weight:bold;vertical-align:top;">last_visit</td><td style="vertical-align:top;">:</td><td><div>datetime.datetime(2016, 10, 9, 2, 13, 34, 627168)</div></td></tr><tr><td style="font-weight:bold;vertical-align:top;">remember_me</td><td style="vertical-align:top;">:</td><td><div>True</div></td></tr><tr><td style="font-weight:bold;vertical-align:top;">user</td><td style="vertical-align:top;">:</td><td><div><table><tr><td style="font-weight:bold;vertical-align:top;">email</td><td style="vertical-align:top;">:</td><td><div>tazjel@gmail.com</div></td></tr><tr><td style="font-weight:bold;vertical-align:top;">first_name</td><td style="vertical-align:top;">:</td><td><div></div></td></tr><tr><td style="font-weight:bold;vertical-align:top;">id</td><td style="vertical-align:top;">:</td><td><div>1L</div></td></tr><tr><td style="font-weight:bold;vertical-align:top;">last_name</td><td style="vertical-align:top;">:</td><td><div></div></td></tr><tr><td style="font-weight:bold;vertical-align:top;">name</td><td style="vertical-align:top;">:</td><td><div>Ahmed Al-Bani</div></td></tr><tr><td style="font-weight:bold;vertical-align:top;">registration_id</td><td style="vertical-align:top;">:</td><td><div></div></td></tr><tr><td style="font-weight:bold;vertical-align:top;">registration_key</td><td style="vertical-align:top;">:</td><td><div></div></td></tr><tr><td style="font-weight:bold;vertical-align:top;">reset_password_key</td><td style="vertical-align:top;">:</td><td><div>1475979196-c9880fd7-cc2e-4c41-9229-fc114a94288e</div></td></tr><tr><td style="font-weight:bold;vertical-align:top;">username</td><td style="vertical-align:top;">:</td><td><div>tazjel@gmail.com</div></td></tr></table></div></td></tr><tr><td style="font-weight:bold;vertical-align:top;">user_groups</td><td style="vertical-align:top;">:</td><td><div><table><tr><td style="font-weight:bold;vertical-align:top;">1</td><td style="vertical-align:top;">:</td><td><div>user_1</div></td></tr></table></div></td></tr></table></div></td></tr><tr><td style="font-weight:bold;vertical-align:top;">flash</td><td style="vertical-align:top;">:</td><td><div>None</div></td></tr><tr><td style="font-weight:bold;vertical-align:top;">last_orderby</td><td style="vertical-align:top;">:</td><td><div>None</div></td></tr><tr><td style="font-weight:bold;vertical-align:top;">last_query</td><td style="vertical-align:top;">:</td><td><div>db.card.id&gt;0</div></td></tr></table></div>'
tRp115
sS'etype'
p116
S"<type 'exceptions.NameError'>"
p117
sS'date'
p118
S'Fri Oct 14 22:47:06 2016'
p119
sS'response'
p120
g57
(S's\xc11\x00\x00<div><table><tr><td style="font-weight:bold;vertical-align:top;">body</td><td style="vertical-align:top;">:</td><td><div>&lt;cStringIO.StringO object at 0x7fc557fc40d8&gt;</div></td></tr><tr><td style="font-weight:bold;vertical-align:top;">cookies</td><td style="vertical-align:top;">:</td><td><div><table><tr><td style="font-weight:bold;vertical-align:top;">session_id_belot</td><td style="vertical-align:top;">:</td><td><div>90.148.254.1-c66c78da-5831-4217-88df-a4d7596a6e1d<table><tr><td style="font-weight:bold;vertical-align:top;">comment</td><td style="vertical-align:top;">:</td><td><div></div></td></tr><tr><td style="font-weight:bold;vertical-align:top;">domain</td><td style="vertical-align:top;">:</td><td><div></div></td></tr><tr><td style="font-weight:bold;vertical-align:top;">expires</td><td style="vertical-align:top;">:</td><td><div></div></td></tr><tr><td style="font-weight:bold;vertical-align:top;">httponly</td><td style="vertical-align:top;">:</td><td><div></div></td></tr><tr><td style="font-weight:bold;vertical-align:top;">max-age</td><td style="vertical-align:top;">:</td><td><div></div></td></tr><tr><td style="font-weight:bold;vertical-align:top;">path</td><td style="vertical-align:top;">:</td><td><div>/</div></td></tr><tr><td style="font-weight:bold;vertical-align:top;">secure</td><td style="vertical-align:top;">:</td><td><div></div></td></tr><tr><td style="font-weight:bold;vertical-align:top;">version</td><td style="vertical-align:top;">:</td><td><div></div></td></tr></table></div></td></tr></table></div></td></tr><tr><td style="font-weight:bold;vertical-align:top;">delimiters</td><td style="vertical-align:top;">:</td><td><div><table><tr><td><div>{{</div></td></tr><tr><td><div>}}</div></td></tr></table></div></td></tr><tr><td style="font-weight:bold;vertical-align:top;">files</td><td style="vertical-align:top;">:</td><td><div><table></table></div></td></tr><tr><td style="font-weight:bold;vertical-align:top;">flash</td><td style="vertical-align:top;">:</td><td><div></div></td></tr><tr><td style="font-weight:bold;vertical-align:top;">form_label_separator</td><td style="vertical-align:top;">:</td><td><div>: </div></td></tr><tr><td style="font-weight:bold;vertical-align:top;">formstyle</td><td style="vertical-align:top;">:</td><td><div>table3cols</div></td></tr><tr><td style="font-weight:bold;vertical-align:top;">generic_patterns</td><td style="vertical-align:top;">:</td><td><div><table></table></div></td></tr><tr><td style="font-weight:bold;vertical-align:top;">google_analytics_id</td><td style="vertical-align:top;">:</td><td><div>None</div></td></tr><tr><td style="font-weight:bold;vertical-align:top;">headers</td><td style="vertical-align:top;">:</td><td><div><table><tr><td style="font-weight:bold;vertical-align:top;">X-Powered-By</td><td style="vertical-align:top;">:</td><td><div>web2py</div></td></tr></table></div></td></tr><tr><td style="font-weight:bold;vertical-align:top;">logo</td><td style="vertical-align:top;">:</td><td><div><a class="brand" href="http://www.web2py.com/"><b>web<span>2</span>py</b>&trade;&nbsp;</a></div></td></tr><tr><td style="font-weight:bold;vertical-align:top;">menu</td><td style="vertical-align:top;">:</td><td><div><table><tr><td><div><table><tr><td><div>Home</div></td></tr><tr><td><div>False</div></td></tr><tr><td><div>/belot/default/index</div></td></tr><tr><td><div><table></table></div></td></tr></table></div></td></tr><tr><td><div><table><tr><td><div><span class="highlighted">web2py</span></div></td></tr><tr><td><div>False</div></td></tr><tr><td><div>http://web2py.com</div></td></tr><tr><td><div><table><tr><td><div><table><tr><td><div>My Sites</div></td></tr><tr><td><div>False</div></td></tr><tr><td><div>/admin/default/site</div></td></tr></table></div></td></tr><tr><td><div><table><tr><td><div>This App</div></td></tr><tr><td><div>False</div></td></tr><tr><td><div>/admin/default/design/belot</div></td></tr><tr><td><div>[(&lt;lazyT &#x27;Controller&#x27;&gt;, False, &#x27;/admin/default/edit/belot/controllers/game.py&#x27;), (&lt;lazyT &#x27;View&#x27;&gt;, False, &#x27;/admin/default/edit/belot/views/game/info.html&#x27;), (&lt;lazyT &#x27;Layout&#x27;&gt;, False, &#x27;/admin/default/edit/belot/views/layout.html&#x27;), (&lt;lazyT &#x27;Stylesheet&#x27;&gt;, False, &#x27;/admin/default/edit/belot/static/css/web2py.css&#x27;), (&lt;lazyT &#x27;DB Model&#x27;&gt;, False, &#x27;/admin/default/edit/belot/models/db.py&#x27;), (&lt;lazyT &#x27;Menu Model&#x27;&gt;, False, &#x27;/admin/default/edit/belot/models/menu.py&#x27;), (&lt;lazyT &#x27;Database&#x27;&gt;, False, &#x27;/belot/appadmin/index&#x27;), (&lt;lazyT &#x27;Errors&#x27;&gt;, False, &#x27;/admin/default/errors/belot&#x27;), (&lt;lazyT &#x27;About&#x27;&gt;, False, &#x27;/admin/default/about/belot&#x27;)]</div></td></tr></table></div></td></tr><tr><td><div><table><tr><td><div>web2py.com</div></td></tr><tr><td><div>False</div></td></tr><tr><td><div>http://www.web2py.com</div></td></tr><tr><td><div>[(&lt;lazyT &#x27;Download&#x27;&gt;, False, &#x27;http://www.web2py.com/examples/default/download&#x27;), (&lt;lazyT &#x27;Support&#x27;&gt;, False, &#x27;http://www.web2py.com/examples/default/support&#x27;), (&lt;lazyT &#x27;Demo&#x27;&gt;, False, &#x27;http://web2py.com/demo_admin&#x27;), (&lt;lazyT &#x27;Quick Examples&#x27;&gt;, False, &#x27;http://web2py.com/examples/default/examples&#x27;), (&lt;lazyT &#x27;FAQ&#x27;&gt;, False, &#x27;http://web2py.com/AlterEgo&#x27;), (&lt;lazyT &#x27;Videos&#x27;&gt;, False, &#x27;http://www.web2py.com/examples/default/videos/&#x27;), (&lt;lazyT &#x27;Free Applications&#x27;&gt;, False, &#x27;http://web2py.com/appliances&#x27;), (&lt;lazyT &#x27;Plugins&#x27;&gt;, False, &#x27;http://web2py.com/plugins&#x27;), (&lt;lazyT &#x27;Layouts&#x27;&gt;, False, &#x27;http://web2py.com/layouts&#x27;), (&lt;lazyT &#x27;Recipes&#x27;&gt;, False, &#x27;http://web2pyslices.com/&#x27;), (&lt;lazyT &#x27;Semantic&#x27;&gt;, False, &#x27;http://web2py.com/semantic&#x27;)]</div></td></tr></table></div></td></tr><tr><td><div><table><tr><td><div>Documentation</div></td></tr><tr><td><div>False</div></td></tr><tr><td><div>http://www.web2py.com/book</div></td></tr><tr><td><div>[(&lt;lazyT &#x27;Preface&#x27;&gt;, False, &#x27;http://www.web2py.com/book/default/chapter/00&#x27;), (&lt;lazyT &#x27;Introduction&#x27;&gt;, False, &#x27;http://www.web2py.com/book/default/chapter/01&#x27;), (&lt;lazyT &#x27;Python&#x27;&gt;, False, &#x27;http://www.web2py.com/book/default/chapter/02&#x27;), (&lt;lazyT &#x27;Overview&#x27;&gt;, False, &#x27;http://www.web2py.com/book/default/chapter/03&#x27;), (&lt;lazyT &#x27;The Core&#x27;&gt;, False, &#x27;http://www.web2py.com/book/default/chapter/04&#x27;), (&lt;lazyT &#x27;The Views&#x27;&gt;, False, &#x27;http://www.web2py.com/book/default/chapter/05&#x27;), (&lt;lazyT &#x27;Database&#x27;&gt;, False, &#x27;http://www.web2py.com/book/default/chapter/06&#x27;), (&lt;lazyT &#x27;Forms and Validators&#x27;&gt;, False, &#x27;http://www.web2py.com/book/default/chapter/07&#x27;), (&lt;lazyT &#x27;Email and SMS&#x27;&gt;, False, &#x27;http://www.web2py.com/book/default/chapter/08&#x27;), (&lt;lazyT &#x27;Access Control&#x27;&gt;, False, &#x27;http://www.web2py.com/book/default/chapter/09&#x27;), (&lt;lazyT &#x27;Services&#x27;&gt;, False, &#x27;http://www.web2py.com/book/default/chapter/10&#x27;), (&lt;lazyT &#x27;Ajax Recipes&#x27;&gt;, False, &#x27;http://www.web2py.com/book/default/chapter/11&#x27;), (&lt;lazyT &#x27;Components and Plugins&#x27;&gt;, False, &#x27;http://www.web2py.com/book/default/chapter/12&#x27;), (&lt;lazyT &#x27;Deployment Recipes&#x27;&gt;, False, &#x27;http://www.web2py.com/book/default/chapter/13&#x27;), (&lt;lazyT &#x27;Other Recipes&#x27;&gt;, False, &#x27;http://www.web2py.com/book/default/chapter/14&#x27;), (&lt;lazyT &#x27;Buy this book&#x27;&gt;, False, &#x27;http://stores.lulu.com/web2py&#x27;)]</div></td></tr></table></div></td></tr><tr><td><div><table><tr><td><div>Community</div></td></tr><tr><td><div>False</div></td></tr><tr><td><div>None</div></td></tr><tr><td><div>[(&lt;lazyT &#x27;Groups&#x27;&gt;, False, &#x27;http://www.web2py.com/examples/default/usergroups&#x27;), (&lt;lazyT &#x27;Twitter&#x27;&gt;, False, &#x27;http://twitter.com/web2py&#x27;), (&lt;lazyT &#x27;Live Chat&#x27;&gt;, False, &#x27;http://webchat.freenode.net/?channels=web2py&#x27;)]</div></td></tr></table></div></td></tr><tr><td><div><table><tr><td><div>Plugins</div></td></tr><tr><td><div>False</div></td></tr><tr><td><div>None</div></td></tr><tr><td><div>[(&#x27;plugin_wiki&#x27;, False, &#x27;http://web2py.com/examples/default/download&#x27;), (&lt;lazyT &#x27;Other Plugins&#x27;&gt;, False, &#x27;http://web2py.com/plugins&#x27;), (&lt;lazyT &#x27;Layout Plugins&#x27;&gt;, False, &#x27;http://web2py.com/layouts&#x27;)]</div></td></tr></table></div></td></tr></table></div></td></tr></table></div></td></tr></table></div></td></tr><tr><td style="font-weight:bold;vertical-align:top;">meta</td><td style="vertical-align:top;">:</td><td><div><table><tr><td style="font-weight:bold;vertical-align:top;">author</td><td style="vertical-align:top;">:</td><td><div>Your Name &lt;you@example.com&gt;</div></td></tr><tr><td style="font-weight:bold;vertical-align:top;">generator</td><td style="vertical-align:top;">:</td><td><div>Web2py Web Framework</div></td></tr><tr><td style="font-weight:bold;vertical-align:top;">keywords</td><td style="vertical-align:top;">:</td><td><div>web2py, python, framework</div></td></tr></table></div></td></tr><tr><td style="font-weight:bold;vertical-align:top;">models_to_run</td><td style="vertical-align:top;">:</td><td><div><table><tr><td><div>^\\w+\\.py$</div></td></tr><tr><td><div>^game/\\w+\\.py$</div></td></tr><tr><td><div>^game/info/\\w+\\.py$</div></td></tr></table></div></td></tr><tr><td style="font-weight:bold;vertical-align:top;">postprocessing</td><td style="vertical-align:top;">:</td><td><div><table></table></div></td></tr><tr><td style="font-weight:bold;vertical-align:top;">session_client</td><td style="vertical-align:top;">:</td><td><div>188.54.204.46</div></td></tr><tr><td style="font-weight:bold;vertical-align:top;">session_cookie_compression_level</td><td style="vertical-align:top;">:</td><td><div>None</div></td></tr><tr><td style="font-weight:bold;vertical-align:top;">session_cookie_expires</td><td style="vertical-align:top;">:</td><td><div>2592000</div></td></tr><tr><td style="font-weight:bold;vertical-align:top;">session_data_name</td><td style="vertical-align:top;">:</td><td><div>session_data_belot</div></td></tr><tr><td style="font-weight:bold;vertical-align:top;">session_file</td><td style="vertical-align:top;">:</td><td><div>&lt;open file &#x27;/home/tazjel/zweb2py/applications/belot/sessions/0e6/059/90.148.254.1-c66c78da-5831-4217-88df-a4d7596a6e1d&#x27;, mode &#x27;rb+&#x27; at 0x7fc55cc1d930&gt;</div></td></tr><tr><td style="font-weight:bold;vertical-align:top;">session_filename</td><td style="vertical-align:top;">:</td><td><div>/home/tazjel/zweb2py/applications/belot/sessions/90.148.254.1-c66c78da-5831-4217-88df-a4d7596a6e1d</div></td></tr><tr><td style="font-weight:bold;vertical-align:top;">session_hash</td><td style="vertical-align:top;">:</td><td><div>9eb3243df57a5581a02b116354ee05bb</div></td></tr><tr><td style="font-weight:bold;vertical-align:top;">session_id</td><td style="vertical-align:top;">:</td><td><div>90.148.254.1-c66c78da-5831-4217-88df-a4d7596a6e1d</div></td></tr><tr><td style="font-weight:bold;vertical-align:top;">session_id_name</td><td style="vertical-align:top;">:</td><td><div>session_id_belot</div></td></tr><tr><td style="font-weight:bold;vertical-align:top;">session_locked</td><td style="vertical-align:top;">:</td><td><div>True</div></td></tr><tr><td style="font-weight:bold;vertical-align:top;">session_masterapp</td><td style="vertical-align:top;">:</td><td><div>belot</div></td></tr><tr><td style="font-weight:bold;vertical-align:top;">session_new</td><td style="vertical-align:top;">:</td><td><div>False</div></td></tr><tr><td style="font-weight:bold;vertical-align:top;">session_storage_type</td><td style="vertical-align:top;">:</td><td><div>file</div></td></tr><tr><td style="font-weight:bold;vertical-align:top;">status</td><td style="vertical-align:top;">:</td><td><div>200</div></td></tr><tr><td style="font-weight:bold;vertical-align:top;">subtitle</td><td style="vertical-align:top;">:</td><td><div></div></td></tr><tr><td style="font-weight:bold;vertical-align:top;">title</td><td style="vertical-align:top;">:</td><td><div>Belot</div></td></tr><tr><td style="font-weight:bold;vertical-align:top;">view</td><td style="vertical-align:top;">:</td><td><div>game/info.html</div></td></tr></table></div>'
tRp121
sS'locals'
p122
(dp123
S'compare_cards_is_bigger'
p124
S'<function compare_cards_is_bigger>'
p125
sS'Service'
p126
S"<class 'gluon.tools.Service'>"
p127
sS'deck'
p128
S'<applications.belot.modules.deck.Deck instance>'
p129
sS'OBJECT'
p130
S"<class 'gluon.html.OBJECT'>"
p131
sS'SQLDB'
p132
S"<class 'pydal.base.DAL'>"
p133
sS'PlayerDummy'
p134
S"<class 'applications.belot.modules.players.playerDummy.PlayerDummy'>"
p135
sg114
S"<Storage {'last_query': 'db.card.id>0', '_auth_n...ord]': ['1313042d-79b0-4bb7-bbfd-3032b6b4aead']}>"
p136
sS'LINK'
p137
S"<class 'gluon.html.LINK'>"
p138
sS'BR'
p139
S"<class 'gluon.html.BR'>"
p140
sS'local_import'
p141
S'<function <lambda>>'
p142
sS'OPTGROUP'
p143
S"<class 'gluon.html.OPTGROUP'>"
p144
sS'__package__'
p145
S'None'
p146
sS'PRE'
p147
S"<class 'gluon.html.PRE'>"
p148
sS'IS_INT_IN_RANGE'
p149
S"<class 'gluon.validators.IS_INT_IN_RANGE'>"
p150
sS'IS_LOWER'
p151
S"<class 'gluon.validators.IS_LOWER'>"
p152
sS'IS_STRONG'
p153
S"<class 'gluon.validators.IS_STRONG'>"
p154
sS'll'
p155
S"[(11, 'C'), (14, 'H'), (10, 'H'), (7, 'C'), (9, 'D')]"
p156
sS'cache'
p157
S'<gluon.cache.Cache object>'
p158
sS'IS_IN_DB'
p159
S"<class 'gluon.validators.IS_IN_DB'>"
p160
sS'TAG'
p161
S'<gluon.html.__TAG__ object>'
p162
sS'SQLField'
p163
S"<class 'pydal.objects.Field'>"
p164
sS'mail'
p165
S'<gluon.tools.Mail object>'
p166
sS'BODY'
p167
S"<class 'gluon.html.BODY'>"
p168
sS'IS_DATE_IN_RANGE'
p169
S"<class 'gluon.validators.IS_DATE_IN_RANGE'>"
p170
sS'random'
p171
S"<module 'random' from '/usr/lib/python2.7/random.pyc'>"
p172
sS'IFRAME'
p173
S"<class 'gluon.html.IFRAME'>"
p174
sS'URL'
p175
S'<function URL>'
p176
sS'__file__'
p177
S"'/home/tazjel/zweb2py/applications/belot/views/game/info.html'"
p178
sS'db'
p179
S'<DAL uri="sqlite://storage.sqlite">'
p180
sS'auth'
p181
S'<gluon.tools.Auth object>'
p182
sS'P'
S"<class 'gluon.html.P'>"
p183
sS'game'
p184
S"<Row {'name': 'a', 'status_id': 17L, 'zplayer': ...er.game_id = 16)>, 'id': 16L, 'description': ''}>"
p185
sS'TFOOT'
p186
S"<class 'gluon.html.TFOOT'>"
p187
sS'value_classic'
p188
S'[11, 10, 4, 3, 2, 0, 0, 0]'
p189
sS'XHTML'
p190
S"<class 'gluon.html.XHTML'>"
p191
sS'ON'
p192
S'True'
p193
sS'OL'
p194
S"<class 'gluon.html.OL'>"
p195
sS'TEXTAREA'
p196
S"<class 'gluon.html.TEXTAREA'>"
p197
sS'Deck'
p198
S'<class applications.belot.modules.deck.Deck>'
p199
sS'MENU'
p200
S"<class 'gluon.html.MENU'>"
p201
sS'IS_IMAGE'
p202
S"<class 'gluon.validators.IS_IMAGE'>"
p203
sS'EM'
p204
S"<class 'gluon.html.EM'>"
p205
sS'CODE'
p206
S"<class 'gluon.html.CODE'>"
p207
sS'HTTP'
p208
S"<class 'gluon.http.HTTP'>"
p209
sS'HR'
p210
S"<class 'gluon.html.HR'>"
p211
sS'IS_DATETIME'
p212
S"<class 'gluon.validators.IS_DATETIME'>"
p213
sS'STYLE'
p214
S"<class 'gluon.html.STYLE'>"
p215
sS'LABEL'
p216
S"<class 'gluon.html.LABEL'>"
p217
sS'PlayerRandomPlayableCards'
p218
S"<class 'applications.belot.modules.players.playerRandomPlayableCards.PlayerRandomPlayableCards'>"
p219
sS'CLEANUP'
p220
S"<class 'gluon.validators.CLEANUP'>"
p221
sS'plugins'
p222
S'<gluon.tools.PluginManager object>'
p223
sS'SELECT'
p224
S"<class 'gluon.html.SELECT'>"
p225
sS'use_janrain'
p226
S'<function use_janrain>'
p227
sS'CENTER'
p228
S"<class 'gluon.html.CENTER'>"
p229
sS'Auth'
p230
S"<class 'gluon.tools.Auth'>"
p231
sS'DEVELOPMENT_MENU'
p232
g193
sS'current'
p233
S'<thread._local object>'
p234
sS'__builtins__'
p235
S"{'ArithmeticError': <type 'exceptions.ArithmeticError'>, 'AssertionError': <type 'exceptions.AssertionError'>, 'AttributeError': <type 'exceptions.AttributeError'>, 'BaseException': <type 'exceptions.BaseException'>, 'BufferError': <type 'exceptions.BufferError'>, 'BytesWarning': <type 'exceptions.BytesWarning'>, 'DeprecationWarning': <type 'exceptions.DeprecationWarning'>, 'EOFError': <type 'exceptions.EOFError'>, 'Ellipsis': Ellipsis, 'EnvironmentError': <type 'exceptions.EnvironmentError'>, ...}"
p236
sS'Game'
p237
S'<class applications.belot.modules.game.Game>'
p238
sS'HTML'
p239
S"<class 'gluon.html.HTML'>"
p240
sS'SQLFORM'
p241
S"<class 'gluon.sqlhtml.SQLFORM'>"
p242
sS'LOAD'
p243
S'<function LOAD>'
p244
sS'redirect'
p245
S'<function redirect>'
p246
sS'FIELDSET'
p247
S"<class 'gluon.html.FIELDSET'>"
p248
sS'IS_EQUAL_TO'
p249
S"<class 'gluon.validators.IS_EQUAL_TO'>"
p250
sS'embed64'
p251
S'<function embed64>'
p252
sS'IS_LIST_OF'
p253
S"<class 'gluon.validators.IS_LIST_OF'>"
p254
sS'CARDS'
p255
S"{(7, 'C'): '7spatiq.png', (7, 'D'): '7karo.png', (7, 'H'): '7kupa.png', (7, 'S'): '7pika.png', (8, 'C'): '8spatiq.png', (8, 'D'): '8karo.png', (8, 'H'): '8kupa.png', (8, 'S'): '8pika.png', (9, 'C'): '9spatiq.png', (9, 'D'): '9karo.png', ...}"
p256
sS'__name__'
p257
S"'__restricted__'"
p258
sS'EMBED'
p259
S"<class 'gluon.html.EMBED'>"
p260
sS'_'
S'<function _>'
p261
sS'c'
S"(14, 'C')"
p262
sS'IS_NOT_IN_DB'
p263
S"<class 'gluon.validators.IS_NOT_IN_DB'>"
p264
sS'H2'
p265
S"<class 'gluon.html.H2'>"
p266
sS'H3'
p267
S"<class 'gluon.html.H3'>"
p268
sS'BUTTON'
p269
S"<class 'gluon.html.BUTTON'>"
p270
sS'order_b_trump'
p271
S'[12, 9, 11, 10, 14, 13, 8, 7]'
p272
sS'order_classic'
p273
S'[11, 10, 14, 13, 12, 9, 8, 7]'
p274
sS'H4'
p275
S"<class 'gluon.html.H4'>"
p276
sS'H5'
p277
S"<class 'gluon.html.H5'>"
p278
sS'UL'
p279
S"<class 'gluon.html.UL'>"
p280
sS'itertools'
p281
S"<module 'itertools' (built-in)>"
p282
sS'IS_UPPER'
p283
S"<class 'gluon.validators.IS_UPPER'>"
p284
sS'xmlescape'
p285
S'<function xmlescape>'
p286
sS'TT'
p287
S"<class 'gluon.html.TT'>"
p288
sS'IS_TIME'
p289
S"<class 'gluon.validators.IS_TIME'>"
p290
sS'value_trump'
p291
S'[20, 14, 11, 10, 4, 3, 0, 0]'
p292
sS'shuffle'
p293
S'<function shuffle>'
p294
sS'OPTION'
p295
S"<class 'gluon.html.OPTION'>"
p296
sS'TITLE'
p297
S"<class 'gluon.html.TITLE'>"
p298
sS'CRYPT'
p299
S"<class 'gluon.validators.CRYPT'>"
p300
sS'IS_EMPTY_OR'
p301
S"<class 'gluon.validators.IS_EMPTY_OR'>"
p302
sS'MARKMIN'
p303
S"<class 'gluon.html.MARKMIN'>"
p304
sS'INPUT'
p305
S"<class 'gluon.html.INPUT'>"
p306
sS'STRONG'
p307
S"<class 'gluon.html.STRONG'>"
p308
sS'COL'
p309
S"<class 'gluon.html.COL'>"
p310
sS'service'
p311
S'<gluon.tools.Service object>'
p312
sS'SCRIPT'
p313
S"<class 'gluon.html.SCRIPT'>"
p314
sg120
S"<Storage {'body': <cStringIO.StringO object at 0...a> at 0x7fc55d384938>, 'view': 'game/info.html'}>"
p315
sS'player_4'
p316
S'<applications.belot.modules.players.playerRandomPlayableCards.PlayerRandomPlayableCards object>'
p317
sS'player_2'
p318
S'<applications.belot.modules.players.playerRandomPlayableCards.PlayerRandomPlayableCards object>'
p319
sS'player_3'
p320
S'<applications.belot.modules.players.playerRandomPlayableCards.PlayerRandomPlayableCards object>'
p321
sS'player_1'
p322
S'<applications.belot.modules.players.playerRandomPlayableCards.PlayerRandomPlayableCards object>'
p323
sS'TABLE'
p324
S"<class 'gluon.html.TABLE'>"
p325
sS'IS_IPV4'
p326
S"<class 'gluon.validators.IS_IPV4'>"
p327
sS'IS_LENGTH'
p328
S"<class 'gluon.validators.IS_LENGTH'>"
p329
sS'IS_IPV6'
p330
S"<class 'gluon.validators.IS_IPV6'>"
p331
sS'XML'
p332
S"<class 'gluon.html.XML'>"
p333
sS'game_on'
p334
S'<function game_on>'
p335
sS'B'
S"<class 'gluon.html.B'>"
p336
sS'IMG'
p337
S"<class 'gluon.html.IMG'>"
p338
sS'SQLTABLE'
p339
S"<class 'gluon.sqlhtml.SQLTABLE'>"
p340
sS'IS_MATCH'
p341
S"<class 'gluon.validators.IS_MATCH'>"
p342
sS'set_trump'
p343
S'<function set_trump>'
p344
sS'IS_ALPHANUMERIC'
p345
S"<class 'gluon.validators.IS_ALPHANUMERIC'>"
p346
sS'hh'
p347
S"(9, 'D')"
p348
sS'P0_hand'
p349
S"[[(11, 'C'), (14, 'H'), (10, 'H'), (7, 'C'), (9, 'D')]]"
p350
sS'card'
p351
S'10'
p352
sS'SPAN'
p353
S"<class 'gluon.html.SPAN'>"
p354
sS'IS_JSON'
p355
S"<class 'gluon.validators.IS_JSON'>"
p356
sS'Field'
p357
S"<class 'pydal.objects.Field'>"
p358
sS'IS_IPADDRESS'
p359
S"<class 'gluon.validators.IS_IPADDRESS'>"
p360
sS'IS_SLUG'
p361
S"<class 'gluon.validators.IS_SLUG'>"
p362
sS'value'
p363
S"'C'"
p364
sS'BEAUTIFY'
p365
S"<class 'gluon.html.BEAUTIFY'>"
p366
sS'META'
p367
S"<class 'gluon.html.META'>"
p368
sS'cards'
p369
S"[(11, 'C'), (14, 'H'), (10, 'H'), (7, 'C'), (9, 'D'), (14, 'C'), (13, 'H'), (11, 'D'), (12, 'D'), (11, 'S'), (7, 'S'), (12, 'S'), (7, 'H'), (13, 'S'), (13, 'C'), (13, 'D'), (7, 'D'), (11, 'H'), (9, 'C'), (12, 'H'), ...]"
p370
sS'H1'
p371
S"<class 'gluon.html.H1'>"
p372
sS'IS_DATE'
p373
S"<class 'gluon.validators.IS_DATE'>"
p374
sS'IS_EMAIL'
p375
S"<class 'gluon.validators.IS_EMAIL'>"
p376
sS'IS_NOT_EMPTY'
p377
S"<class 'gluon.validators.IS_NOT_EMPTY'>"
p378
sS'H6'
p379
S"<class 'gluon.html.H6'>"
p380
sS'TBODY'
p381
S"<class 'gluon.html.TBODY'>"
p382
sS'display_deck'
p383
S'<function display_deck>'
p384
sS'CAT'
p385
S"<class 'gluon.html.CAT'>"
p386
sS'P1_hand'
p387
S"[[(14, 'C'), (13, 'H'), (11, 'D'), (12, 'D'), (11, 'S')]]"
p388
sS'player'
p389
S"<Row {'user_id': 1L, 'status_id': 1L, 'zplayer':...: 21L, 'role_id': 1L, 'game_id': 16L, 'id': 21L}>"
p390
sS'IS_LIST_OF_EMAILS'
p391
S"<class 'gluon.validators.IS_LIST_OF_EMAILS'>"
p392
sS'DIV'
p393
S"<class 'gluon.html.DIV'>"
p394
sS'LEGEND'
p395
S"<class 'gluon.html.LEGEND'>"
p396
sS'end'
p397
S"'Contract was 80'"
p398
sS'players'
p399
S'<Rows (1)>'
p400
sS'DAL'
p401
S"<class 'pydal.base.DAL'>"
p402
sS'ASSIGNJS'
p403
S'<function ASSIGNJS>'
p404
sS'TR'
p405
S"<class 'gluon.html.TR'>"
p406
sS'LI'
p407
S"<class 'gluon.html.LI'>"
p408
sS'TH'
p409
S"<class 'gluon.html.TH'>"
p410
sS'TD'
p411
S"<class 'gluon.html.TD'>"
p412
sS'PluginManager'
p413
S"<class 'gluon.tools.PluginManager'>"
p414
sS'IS_URL'
p415
S"<class 'gluon.validators.IS_URL'>"
p416
sS'A'
S"<class 'gluon.html.A'>"
p417
sS'HEAD'
p418
S"<class 'gluon.html.HEAD'>"
p419
sS'IS_DATETIME_IN_RANGE'
p420
S"<class 'gluon.validators.IS_DATETIME_IN_RANGE'>"
p421
sS'FORM'
p422
S"<class 'gluon.html.FORM'>"
p423
sS'I'
S"<class 'gluon.html.I'>"
p424
sS'v1'
p425
S"'77'"
p426
sS'v2'
p427
S"'85'"
p428
sS'markdown2'
p429
S"<module 'gluon.contrib.markdown.markdown2' from ...el/zweb2py/gluon/contrib/markdown/markdown2.pyc'>"
p430
sS'Order'
p431
S'<class applications.belot.modules.order.Order>'
p432
sS'THEAD'
p433
S"<class 'gluon.html.THEAD'>"
p434
sS'ANY_OF'
p435
S"<class 'gluon.validators.ANY_OF'>"
p436
sS'IS_NULL_OR'
p437
S"<class 'gluon.validators.IS_EMPTY_OR'>"
p438
sS'IS_FLOAT_IN_RANGE'
p439
S"<class 'gluon.validators.IS_FLOAT_IN_RANGE'>"
p440
sS'COLGROUP'
p441
S"<class 'gluon.html.COLGROUP'>"
p442
sg56
S"<Storage {'_vars': None, 'function': 'info', 'co...er': '/home/tazjel/zweb2py/applications/belot/'}>"
p443
sS'IS_EXPR'
p444
S"<class 'gluon.validators.IS_EXPR'>"
p445
sS'T'
S'<gluon.languages.translator object>'
p446
sS'IS_IN_SET'
p447
S"<class 'gluon.validators.IS_IN_SET'>"
p448
sS'IS_UPLOAD_FILENAME'
p449
S"<class 'gluon.validators.IS_UPLOAD_FILENAME'>"
p450
sS'con'
p451
S"'LOSE TEAM 1'"
p452
sS'order'
p453
S'<applications.belot.modules.order.Order instance>'
p454
sS'IS_DECIMAL_IN_RANGE'
p455
S"<class 'gluon.validators.IS_DECIMAL_IN_RANGE'>"
p456
sssS'traceback'
p457
S'Traceback (most recent call last):\n  File "/home/tazjel/zweb2py/gluon/restricted.py", line 227, in restricted\n    exec ccode in environment\n  File "/home/tazjel/zweb2py/applications/belot/views/game/info.html", line 200, in <module>\nNameError: name \'lista\' is not defined\n'
p458
s.