(dp1
S'output'
p2
S'missing "pass" in view'
p3
sS'layer'
p4
S'ParserContainer'
p5
sS'code'
p6
S'response.write(\'<!DOCTYPE html>\\n<head>\\n<title>\', escape=False)\nresponse.write(response.title or request.application)\nresponse.write(\'</title>\\n  <meta charset="utf-8" />\\n  <meta name="application-name" content="\', escape=False)\nresponse.write(request.application)\nresponse.write(\'" />\\n  <meta name="viewport" content="width=device-width, initial-scale=1.0" />\\n  <link rel="shortcut icon" href="\', escape=False)\nresponse.write(URL(\'static\',\'images/favicon.ico\'))\nresponse.write(\'" type="image/x-icon">\\n  <link rel="apple-touch-icon" href="\', escape=False)\nresponse.write(URL(\'static\',\'images/favicon.png\'))\nresponse.write(\'">\\n\\n  <!-- include stylesheets -->\\n  <script src="\', escape=False)\nresponse.write(URL("static","js/jquery.js"))\nresponse.write(\'" type="text/javascript"></script>\\n  <link href="\', escape=False)\nresponse.write(URL("static","bootstrap/css/bootstrap.min.css"))\nresponse.write(\'" rel="stylesheet" type="text/css">\\n  <link href="\', escape=False)\nresponse.write(URL("static","css/assassins.css"))\nresponse.write(\'" rel="stylesheet" type="text/css">\\n  <link href="//cdn.datatables.net/plug-ins/9dcbecd42ad/integration/bootstrap/3/dataTables.bootstrap.css" rel="stylesheet" type="text/css">\\n\\n</head>\\n\\n<body>\\n    \', escape=False)\nresponse.write(\'<header class="navbar navbar-static-top navbar-inverse hidden-xs">\\n  <div class="container-fluid">\\n    <div class="navbar-header">\\n      <div class="navbar-brand">\\n        <img class="splatter" src="\', escape=False)\nresponse.write(URL(\'static\',\'img/splatter.png\'))\nresponse.write(\'">\\n        <span>Assassins</span>\\n      </div>\\n    </div>\\n    \', escape=False)\nresponse.write(\'<nav class="collapse navbar-collapse bs-navbar-collapse" role="navigation">\\n    <ul class="nav navbar-nav">\\n        \', escape=False)\nif auth.user:\n    response.write(\'\\n            <li><a href="\', escape=False)\n    response.write(URL(\'game\',\'current\'))\n    response.write(\'">My current games</a></li>\\n            <li><a href="\', escape=False)\n    response.write(URL(\'findgame\',\'index\'))\n    response.write(\'">Find a game</a></li>\\n            <li><a href="\', escape=False)\n    response.write(URL(\'creategame\',\'index\'))\n    response.write(\'">Create a game</a></li>\\n            <li class="visible-xs"><a href="\', escape=False)\n    response.write(URL(\'default\',\'profile\'))\n    response.write(\'">\', escape=False)\n    response.write(auth.user.name)\n    response.write(\'\\\'s profile</a></li>\\n            <li class="visible-xs"><a href="\', escape=False)\n    response.write(URL(\'default\',\'changepassword\'))\n    response.write(\'">Change password</a></li>\\n            <li class="visible-xs"><a href="\', escape=False)\n    response.write(URL(\'default\',\'user\', args = [\'logout\']))\n    response.write(\'">Log out</a></li>\\n        \', escape=False)\nelse:\n    response.write(\'\\n            <li class="visible-xs"><a href="\', escape=False)\n    response.write(URL(\'default\',\'login\'))\n    response.write(\'">Log in</a></li>\\n            <li class="visible-xs"><a href="\', escape=False)\n    response.write(URL(\'default\',\'register\'))\n    response.write(\'">Register</a></li>\\n        \', escape=False)\n    pass\nresponse.write(\'        \\n    </ul>\\n    <ul class="nav navbar-nav navbar-right hidden-xs">\\n        \', escape=False)\nif auth.user:\n    response.write(\'\\n            <li class="dropdown">\\n                <a href="#" class="dropdown-toggle" data-toggle="dropdown" role="button" aria-expanded="true">\', escape=False)\n    response.write(auth.user.name)\n    response.write(\' <span class="caret"></span></a>\\n                <ul class="dropdown-menu" role="menu">\\n                    <li><a href="\', escape=False)\n    response.write(URL(\'default\',\'profile\'))\n    response.write(\'">Profile</a></li>\\n                    <li><a href="\', escape=False)\n    response.write(URL(\'default\',\'changepassword\'))\n    response.write(\'">Change password</a></li>\\n                    <li class="divider"></li>\\n                    <li><a href="\', escape=False)\n    response.write(URL(\'default\',\'user\', args = [\'logout\']))\n    response.write(\'">Log out</a></li>\\n                </ul>\\n            </li>\\n        \', escape=False)\nelse:\n    response.write(\'\\n            <li><a href="\', escape=False)\n    response.write(URL(\'default\',\'login\'))\n    response.write(\'">Log in</a></li>\\n            <li><a href="\', escape=False)\n    response.write(URL(\'default\',\'register\'))\n    response.write(\'">Register</a></li>\\n        \', escape=False)\n    pass\nresponse.write(\'\\n    </ul>\\n</nav>\', escape=False)\nresponse.write(\'\\n  </div>\\n</header>\\n\\n<header class="navbar navbar-static-top navbar-inverse visible-xs" data-toggle="collapse" data-target=".bs-navbar-collapse">\\n  <div class="container-fluid">\\n    <div class="navbar-header">\\n      <button class="navbar-toggle collapsed" type="button">\\n        <span class="sr-only">Toggle navigation</span>\\n        <span class="icon-bar"></span>\\n        <span class="icon-bar"></span>\\n        <span class="icon-bar"></span>\\n      </button>\\n      <div class="navbar-brand">\\n        <img class="splatter" src="\', escape=False)\nresponse.write(URL(\'static\',\'img/splatter.png\'))\nresponse.write(\'">\\n        <span>Assassins</span>\\n      </div>\\n    </div>\\n    \', escape=False)\nresponse.write(\'<nav class="collapse navbar-collapse bs-navbar-collapse" role="navigation">\\n    <ul class="nav navbar-nav">\\n        \', escape=False)\nif auth.user:\n    response.write(\'\\n            <li><a href="\', escape=False)\n    response.write(URL(\'game\',\'current\'))\n    response.write(\'">My current games</a></li>\\n            <li><a href="\', escape=False)\n    response.write(URL(\'findgame\',\'index\'))\n    response.write(\'">Find a game</a></li>\\n            <li><a href="\', escape=False)\n    response.write(URL(\'creategame\',\'index\'))\n    response.write(\'">Create a game</a></li>\\n            <li class="visible-xs"><a href="\', escape=False)\n    response.write(URL(\'default\',\'profile\'))\n    response.write(\'">\', escape=False)\n    response.write(auth.user.name)\n    response.write(\'\\\'s profile</a></li>\\n            <li class="visible-xs"><a href="\', escape=False)\n    response.write(URL(\'default\',\'changepassword\'))\n    response.write(\'">Change password</a></li>\\n            <li class="visible-xs"><a href="\', escape=False)\n    response.write(URL(\'default\',\'user\', args = [\'logout\']))\n    response.write(\'">Log out</a></li>\\n        \', escape=False)\nelse:\n    response.write(\'\\n            <li class="visible-xs"><a href="\', escape=False)\n    response.write(URL(\'default\',\'login\'))\n    response.write(\'">Log in</a></li>\\n            <li class="visible-xs"><a href="\', escape=False)\n    response.write(URL(\'default\',\'register\'))\n    response.write(\'">Register</a></li>\\n        \', escape=False)\n    pass\nresponse.write(\'        \\n    </ul>\\n    <ul class="nav navbar-nav navbar-right hidden-xs">\\n        \', escape=False)\nif auth.user:\n    response.write(\'\\n            <li class="dropdown">\\n                <a href="#" class="dropdown-toggle" data-toggle="dropdown" role="button" aria-expanded="true">\', escape=False)\n    response.write(auth.user.name)\n    response.write(\' <span class="caret"></span></a>\\n                <ul class="dropdown-menu" role="menu">\\n                    <li><a href="\', escape=False)\n    response.write(URL(\'default\',\'profile\'))\n    response.write(\'">Profile</a></li>\\n                    <li><a href="\', escape=False)\n    response.write(URL(\'default\',\'changepassword\'))\n    response.write(\'">Change password</a></li>\\n                    <li class="divider"></li>\\n                    <li><a href="\', escape=False)\n    response.write(URL(\'default\',\'user\', args = [\'logout\']))\n    response.write(\'">Log out</a></li>\\n                </ul>\\n            </li>\\n        \', escape=False)\nelse:\n    response.write(\'\\n            <li><a href="\', escape=False)\n    response.write(URL(\'default\',\'login\'))\n    response.write(\'">Log in</a></li>\\n            <li><a href="\', escape=False)\n    response.write(URL(\'default\',\'register\'))\n    response.write(\'">Register</a></li>\\n        \', escape=False)\n    pass\nresponse.write(\'\\n    </ul>\\n</nav>\', escape=False)\nresponse.write(\'\\n  </div>\\n</header>\', escape=False)\nresponse.write(\'\\n    \', escape=False)\nresponse.write(\'\\n<div class="container-fluid content">\\n    \', escape=False)\nresponse.write(\'\\n\', escape=False)\nfrom gluon.contrib.markdown import markdown2\nresponse.write(\'\\n\\n\', escape=False)\nresponse.write(LOAD("game","_playerinfo", args=[game.id]))\nresponse.write(\'\\n\\n\', escape=False)\nresponse.write(LOAD("game","_gamebuttons", args=[game.id]))\nresponse.write(\'\\n<h1>\', escape=False)\nresponse.write(game.name)\nresponse.write(\'</h1>\\n<h4>\', escape=False)\nresponse.write(game.status_id.description)\nresponse.write(\'</h4>\\n<hr>\\n\', escape=False)\nresponse.write(XML(markdown2.markdown(game.description)))\nresponse.write(\'\\n<h4>Players</h4>\\n\', escape=False)\nfor player in players:\n    response.write(\'\\n    <span class="\', escape=False)\n    response.write(player.role_id.name)\n    response.write(\' \', escape=False)\n    response.write(player.status_id.name)\n    response.write(\'">\', escape=False)\n    response.write(player.user_id.name)\n    response.write(\'</span><br>\\n\', escape=False)\n    pass\nresponse.write(\'\\n\\n\\n\', escape=False)\nfrom deck import Deck\nresponse.write(\'\\n\', escape=False)\nfrom players.playerRandomPlayableCards import PlayerRandomPlayableCards\nresponse.write(\'\\n\', escape=False)\nfrom players.playerDummy import PlayerDummy\nresponse.write(\'\\n\', escape=False)\nfrom order import Order\nresponse.write(\'\\n\', escape=False)\nfrom game import Game\nresponse.write(\'\\n\\n\', escape=False)\ndeck = Deck()\nresponse.write(\'\\n\', escape=False)\norder = Order()\nresponse.write(\'\\n\\n\', escape=False)\ndeck.shuffle()\nresponse.write(\'\\n\\n\\n\', escape=False)\nplayer_1 = PlayerRandomPlayableCards("player_1", 1, 1)\nresponse.write(\'\\n\', escape=False)\nplayer_2 = PlayerRandomPlayableCards("player_2", 2, 2)\nresponse.write(\'\\n\', escape=False)\nplayer_3 = PlayerRandomPlayableCards("player_3", 3, 1)\nresponse.write(\'\\n\', escape=False)\nplayer_4 = PlayerRandomPlayableCards("player_4", 4, 2)\nresponse.write(\'\\n\\n\\n</br>\\n</br>\\n\\n\\n\', escape=False)\nend, v1, v2, con = Game(player_1, player_2, player_3, player_4, deck).display_loot()\nresponse.write(\'\\n\\n\\n\\n</br>\\n</br>\\n</br>\\n\\n<div>\\n\\t\', escape=False)\nresponse.write(v1)\nresponse.write(\'\\n\\n</div> \\n<div>\\n\\t\', escape=False)\nresponse.write(v2)\nresponse.write(\'\\n\\n</div> \\n</br>\\n</br>\\n\\xd9\\x84\\xd9\\x86\\xd8\\xa7 \\n\\n\', escape=False)\nresponse.write(v1)\nresponse.write(\'\\n</br>\\n</br>\\n\\xd9\\x84\\xd9\\x87\\xd9\\x85 \', escape=False)\nresponse.write(v2)\nresponse.write(\'\\n\\n</br>\\n</br>\\n\\n\', escape=False)\nresponse.write(end)\nresponse.write(\'\\n\\n\\n</br>\\n</br>\\n\\xd8\\xa7\\xd9\\x84\\xd9\\x86\\xd8\\xaa\\xd9\\x8a\\xd8\\xac\\xd8\\xa9\\n\', escape=False)\nresponse.write(con)\nresponse.write(\'\\n\\n\', escape=False)\nif any(btn.values()):\n    response.write(\'\\n\\n\', escape=False)\n    if btn[\'join\']:\n        response.write(\'<button id="joingame" class="btn btn-default">\\xd8\\xb5\\xd9\\x86</button>\', escape=False)\n        pass\n    response.write(\'\\n\', escape=False)\n    if btn[\'leave\']:\n        response.write(\'<button id="leavegame" class="btn btn-default">Leave Game</button>\', escape=False)\n        pass\n    response.write(\'\\n\', escape=False)\n    if btn[\'start\']:\n        response.write(\'<button id="startgame" class="btn btn-default">Start Game</button>\', escape=False)\n        pass\n    response.write(\'\\n\', escape=False)\n    if btn[\'delete\']:\n        response.write(\'<button id="deletegame" class="btn btn-default">Delete Game</button>\', escape=False)\n        pass\n    response.write(\'\\n\', escape=False)\n    if btn[\'edit\']:\n        response.write(\'<button id="" class="btn btn-default">Edit Game</button>\', escape=False)\n        pass\n    response.write(\'\\n\\n<!-- cards container -->\\n\\n      <script src="\', escape=False)\n    response.write(URL(\'static\',\'js/belot.js\'))\n    response.write(\'"></script>\\n\\n      <script src="\', escape=False)\n    response.write(URL(\'static\',\'js/jq.js\'))\n    response.write(\'"></script>\\n\\n\\n\\n<link rel="stylesheet" href="\', escape=False)\n    response.write(URL(\'static\',\'css/belt.css\'))\n    response.write(\'"/>\\n\\n<h1>Animating Playing Cards</h1>\\n<small>Click the "Stack" button to move cards back to initial position</small><br><br>\\n<button type=\\\'button\\\' onclick=\\\'reset_cards()\\\'>Stack</button>\\n<button type=\\\'button\\\' onclick=\\\'animate_card(45)\\\'>Animate 45</button>\\n<button type=\\\'button\\\' onclick=\\\'animate_card(360)\\\'>Animate 360</button>\\n<button type=\\\'button\\\' onclick=\\\'flower_animation()\\\'>Flower Animation</button>\\n<br><br>\\n<button type=\\\'button\\\' onclick=\\\'separate_instantly()\\\'>Separate instantly</button>\\n<button type=\\\'button\\\' onclick=\\\'separate_one_by_one()\\\'>Separate slowly</button>\\n<button type=\\\'button\\\' onclick=\\\'open_all_cards()\\\'>Open all</button>\\n<button type=\\\'button\\\' onclick=\\\'close_all_cards()\\\'>Close all</button>\\n<br><br>\\n<button type=\\\'button\\\' onclick=\\\'shufle_cards()\\\'>Shuffle</button>\\n<button type=\\\'button\\\' onclick=\\\'begin_madness()\\\'>Go Mad</button>\\n<button type=\\\'button\\\' onclick=\\\'stop_madness()\\\'>Back to Normal</button>\\n\\n\\n <style> img.bottom { vertical-align: text-bottom; } </style>\\n     <img src=\', escape=False)\n    response.write(URL(\'static\',\'images\',args=\'images/10spatiq.png\'))\n    response.write(\' alt="golem"class=bottom>\\n<!-- cards container -->\\n<div id=\\\'pack_cont\\\'>\\n\\t\\n\\t<!-- single card -->\\n\\t<div class=\\\'card\\\'>\\n\\t\\t<span data-value=\\\'A\\\' data-title=\\\'A \\xe2\\x99\\xa3\\\'></span>\\n\\t</div>\\n\\t<!-- single card -->\\n\\n\\t<!-- single card -->\\n\\t<div class=\\\'card\\\'>\\n\\t\\t<span data-value=\\\'2\\\' data-title=\\\'2 \\xe2\\x99\\xa3\\\'></span>\\n\\t</div>\\n\\t<!-- single card -->\\n\\n\\t<!-- single card -->\\n\\t<div class=\\\'card\\\'>\\n\\t\\t<span data-value=\\\'3\\\' data-title=\\\'3 \\xe2\\x99\\xa3\\\'></span>\\n\\t</div>\\n\\t<!-- single card -->\\n\\n\\t<!-- single card -->\\n\\t<div class=\\\'card\\\'>\\n\\t\\t<span data-value=\\\'4\\\' data-title=\\\'4 \\xe2\\x99\\xa3\\\'></span>\\n\\t</div>\\n\\t<!-- single card -->\\n\\n\\t<!-- single card -->\\n\\t<div class=\\\'card\\\'>\\n\\t\\t<span data-value=\\\'5\\\' data-title=\\\'5 \\xe2\\x99\\xa3\\\'></span>\\n\\t</div>\\n\\t<!-- single card -->\\n\\n\\t<!-- single card -->\\n\\t<div class=\\\'card\\\'>\\n\\t\\t<span data-value=\\\'6\\\' data-title=\\\'6 \\xe2\\x99\\xa3\\\'></span>\\n\\t</div>\\n\\t<!-- single card -->\\n\\n\\t<!-- single card -->\\n\\t<div class=\\\'card\\\'>\\n\\t\\t<span data-value=\\\'7\\\' data-title=\\\'7 \\xe2\\x99\\xa3\\\'></span>\\n\\t</div>\\n\\t<!-- single card -->\\n\\n\\t<!-- single card -->\\n\\t<div class=\\\'card\\\'>\\n\\t\\t<span data-value=\\\'8\\\' data-title=\\\'8 \\xe2\\x99\\xa3\\\'></span>\\n\\t</div>\\n\\t<!-- single card -->\\n\\n\\t<!-- single card -->\\n\\t<div class=\\\'card\\\'>\\n\\t\\t<span data-value=\\\'9\\\' data-title=\\\'9 \\xe2\\x99\\xa3\\\'></span>\\n\\t</div>\\n\\t<!-- single card -->\\n\\n\\t<!-- single card -->\\n\\t<div class=\\\'card\\\' >\\n\\t\\t<span data-value=\\\'10\\\' data-title=\\\'10 \\xe2\\x99\\xa3\\\'></span>\\n\\t</div>\\n\\t<!-- single card -->\\n\\n\\t<!-- single card -->\\n\\t<div class=\\\'card\\\'>\\n\\t\\t<span data-value=\\\'J\\\' data-title=\\\'J \\xe2\\x99\\xa3\\\'></span>\\n\\t</div>\\n\\t<!-- single card -->\\n\\n\\t<!-- single card -->\\n\\t<div class=\\\'card\\\'>\\n\\t\\t<span data-value=\\\'Q\\\' data-title=\\\'Q \\xe2\\x99\\xa3\\\'></span>\\n\\t</div>\\n\\t<!-- single card -->\\n\\n\\t<!-- single card -->\\n\\t<div class=\\\'card\\\'>\\n\\t\\t<span data-value=\\\'K\\\' data-title=\\\'K \\xe2\\x99\\xa3\\\'></span>\\n\\t</div>\\n\\t<!-- single card -->\\n\\n\\n\\t<!-- single card -->\\n\\t<div class=\\\'card red\\\'>\\n\\t\\t<span data-value=\\\'A\\\' data-title=\\\'A \\xe2\\x99\\xa6\\\'></span>\\n\\t</div>\\n\\t<!-- single card -->\\n\\n\\t<!-- single card -->\\n\\t<div class=\\\'card red\\\'>\\n\\t\\t<span data-value=\\\'2\\\' data-title=\\\'2 \\xe2\\x99\\xa6\\\'></span>\\n\\t</div>\\n\\t<!-- single card -->\\n\\n\\t<!-- single card -->\\n\\t<div class=\\\'card red\\\'>\\n\\t\\t<span data-value=\\\'3\\\' data-title=\\\'3 \\xe2\\x99\\xa6\\\'></span>\\n\\t</div>\\n\\t<!-- single card -->\\n\\n\\t<!-- single card -->\\n\\t<div class=\\\'card red\\\'>\\n\\t\\t<span data-value=\\\'4\\\' data-title=\\\'4 \\xe2\\x99\\xa6\\\'></span>\\n\\t</div>\\n\\t<!-- single card -->\\n\\n\\t<!-- single card -->\\n\\t<div class=\\\'card red\\\'>\\n\\t\\t<span data-value=\\\'5\\\' data-title=\\\'5 \\xe2\\x99\\xa6\\\'></span>\\n\\t</div>\\n\\t<!-- single card -->\\n\\n\\t<!-- single card -->\\n\\t<div class=\\\'card red\\\'>\\n\\t\\t<span data-value=\\\'6\\\' data-title=\\\'6 \\xe2\\x99\\xa6\\\'></span>\\n\\t</div>\\n\\t<!-- single card -->\\n\\n\\t<!-- single card -->\\n\\t<div class=\\\'card red\\\'>\\n\\t\\t<span data-value=\\\'7\\\' data-title=\\\'7 \\xe2\\x99\\xa6\\\'></span>\\n\\t</div>\\n\\t<!-- single card -->\\n\\n\\t<!-- single card -->\\n\\t<div class=\\\'card red\\\'>\\n\\t\\t<span data-value=\\\'8\\\' data-title=\\\'8 \\xe2\\x99\\xa6\\\'></span>\\n\\t</div>\\n\\t<!-- single card -->\\n\\n\\t<!-- single card -->\\n\\t<div class=\\\'card red\\\'>\\n\\t\\t<span data-value=\\\'9\\\' data-title=\\\'9 \\xe2\\x99\\xa6\\\'></span>\\n\\t</div>\\n\\t<!-- single card -->\\n\\n\\t<!-- single card -->\\n\\t<div class=\\\'card red\\\' >\\n\\t\\t<span data-value=\\\'10\\\' data-title=\\\'10 \\xe2\\x99\\xa6\\\'></span>\\n\\t</div>\\n\\t<!-- single card -->\\n\\n\\t<!-- single card -->\\n\\t<div class=\\\'card red\\\'>\\n\\t\\t<span data-value=\\\'J\\\' data-title=\\\'J \\xe2\\x99\\xa6\\\'></span>\\n\\t</div>\\n\\t<!-- single card -->\\n\\n\\t<!-- single card -->\\n\\t<div class=\\\'card red\\\'>\\n\\t\\t<span data-value=\\\'Q\\\' data-title=\\\'Q \\xe2\\x99\\xa6\\\'></span>\\n\\t</div>\\n\\t<!-- single card -->\\n\\n\\t<!-- single card -->\\n\\t<div class=\\\'card red\\\'>\\n\\t\\t<span data-value=\\\'K\\\' data-title=\\\'K \\xe2\\x99\\xa6\\\'></span>\\n\\t</div>\\n\\t<!-- single card -->\\n\\n\\n\\t<!-- single card -->\\n\\t<div class=\\\'card red\\\'>\\n\\t\\t<span data-value=\\\'A\\\' data-title=\\\'A \\xe2\\x99\\xa5\\\'></span>\\n\\t</div>\\n\\t<!-- single card -->\\n\\n\\t<!-- single card -->\\n\\t<div class=\\\'card red\\\'>\\n\\t\\t<span data-value=\\\'2\\\' data-title=\\\'2 \\xe2\\x99\\xa5\\\'></span>\\n\\t</div>\\n\\t<!-- single card -->\\n\\n\\t<!-- single card -->\\n\\t<div class=\\\'card red\\\'>\\n\\t\\t<span data-value=\\\'3\\\' data-title=\\\'3 \\xe2\\x99\\xa5\\\'></span>\\n\\t</div>\\n\\t<!-- single card -->\\n\\n\\t<!-- single card -->\\n\\t<div class=\\\'card red\\\'>\\n\\t\\t<span data-value=\\\'4\\\' data-title=\\\'4 \\xe2\\x99\\xa5\\\'></span>\\n\\t</div>\\n\\t<!-- single card -->\\n\\n\\t<!-- single card -->\\n\\t<div class=\\\'card red\\\'>\\n\\t\\t<span data-value=\\\'5\\\' data-title=\\\'5 \\xe2\\x99\\xa5\\\'></span>\\n\\t</div>\\n\\t<!-- single card -->\\n\\n\\t<!-- single card -->\\n\\t<div class=\\\'card red\\\'>\\n\\t\\t<span data-value=\\\'6\\\' data-title=\\\'6 \\xe2\\x99\\xa5\\\'></span>\\n\\t</div>\\n\\t<!-- single card -->\\n\\n\\t<!-- single card -->\\n\\t<div class=\\\'card red\\\'>\\n\\t\\t<span data-value=\\\'7\\\' data-title=\\\'7 \\xe2\\x99\\xa5\\\'></span>\\n\\t</div>\\n\\t<!-- single card -->\\n\\n\\t<!-- single card -->\\n\\t<div class=\\\'card red\\\'>\\n\\t\\t<span data-value=\\\'8\\\' data-title=\\\'8 \\xe2\\x99\\xa5\\\'></span>\\n\\t</div>\\n\\t<!-- single card -->\\n\\n\\t<!-- single card -->\\n\\t<div class=\\\'card red\\\'>\\n\\t\\t<span data-value=\\\'9\\\' data-title=\\\'9 \\xe2\\x99\\xa5\\\'></span>\\n\\t</div>\\n\\t<!-- single card -->\\n\\n\\t<!-- single card -->\\n\\t<div class=\\\'card red\\\' >\\n\\t\\t<span data-value=\\\'10\\\' data-title=\\\'10 \\xe2\\x99\\xa5\\\'></span>\\n\\t</div>\\n\\t<!-- single card -->\\n\\n\\t<!-- single card -->\\n\\t<div class=\\\'card red\\\'>\\n\\t\\t<span data-value=\\\'J\\\' data-title=\\\'J \\xe2\\x99\\xa5\\\'></span>\\n\\t</div>\\n\\t<!-- single card -->\\n\\n\\t<!-- single card -->\\n\\t<div class=\\\'card red\\\'>\\n\\t\\t<span data-value=\\\'Q\\\' data-title=\\\'Q \\xe2\\x99\\xa5\\\'></span>\\n\\t</div>\\n\\t<!-- single card -->\\n\\n\\t<!-- single card -->\\n\\t<div class=\\\'card red\\\'>\\n\\t\\t<span data-value=\\\'K\\\' data-title=\\\'K \\xe2\\x99\\xa5\\\'></span>\\n\\t</div>\\n\\t<!-- single card -->\\n\\n\\n\\t<!-- single card -->\\n\\t<div class=\\\'card\\\'>\\n\\t\\t<span data-value=\\\'A\\\' data-title=\\\'A \\xe2\\x99\\xa0\\\'></span>\\n\\t</div>\\n\\t<!-- single card -->\\n\\n\\t<!-- single card -->\\n\\t<div class=\\\'card\\\'>\\n\\t\\t<span data-value=\\\'2\\\' data-title=\\\'2 \\xe2\\x99\\xa0\\\'></span>\\n\\t</div>\\n\\t<!-- single card -->\\n\\n\\t<!-- single card -->\\n\\t<div class=\\\'card\\\'>\\n\\t\\t<span data-value=\\\'3\\\' data-title=\\\'3 \\xe2\\x99\\xa0\\\'></span>\\n\\t</div>\\n\\t<!-- single card -->\\n\\n\\t<!-- single card -->\\n\\t<div class=\\\'card\\\'>\\n\\t\\t<span data-value=\\\'4\\\' data-title=\\\'4 \\xe2\\x99\\xa0\\\'></span>\\n\\t</div>\\n\\t<!-- single card -->\\n\\n\\t<!-- single card -->\\n\\t<div class=\\\'card\\\'>\\n\\t\\t<span data-value=\\\'5\\\' data-title=\\\'5 \\xe2\\x99\\xa0\\\'></span>\\n\\t</div>\\n\\t<!-- single card -->\\n\\n\\t<!-- single card -->\\n\\t<div class=\\\'card\\\'>\\n\\t\\t<span data-value=\\\'6\\\' data-title=\\\'6 \\xe2\\x99\\xa0\\\'></span>\\n\\t</div>\\n\\t<!-- single card -->\\n\\n\\t<!-- single card -->\\n\\t<div class=\\\'card\\\'>\\n\\t\\t<span data-value=\\\'7\\\' data-title=\\\'7 \\xe2\\x99\\xa0\\\'></span>\\n\\t</div>\\n\\t<!-- single card -->\\n\\n\\t<!-- single card -->\\n\\t<div class=\\\'card\\\'>\\n\\t\\t<span data-value=\\\'8\\\' data-title=\\\'8 \\xe2\\x99\\xa0\\\'></span>\\n\\t</div>\\n\\t<!-- single card -->\\n\\n\\t<!-- single card -->\\n\\t<div class=\\\'card\\\'>\\n\\t\\t<span data-value=\\\'9\\\' data-title=\\\'9 \\xe2\\x99\\xa0\\\'></span>\\n\\t</div>\\n\\t<!-- single card -->\\n\\n\\t<!-- single card -->\\n\\t<div class=\\\'card\\\' >\\n\\t\\t<span data-value=\\\'10\\\' data-title=\\\'10 \\xe2\\x99\\xa0\\\'></span>\\n\\t</div>\\n\\t<!-- single card -->\\n\\n\\t<!-- single card -->\\n\\t<div class=\\\'card\\\'>\\n\\t\\t<span data-value=\\\'J\\\' data-title=\\\'J \\xe2\\x99\\xa0\\\'></span>\\n\\t</div>\\n\\t<!-- single card -->\\n\\n\\t<!-- single card -->\\n\\t<div class=\\\'card\\\'>\\n\\t\\t<span data-value=\\\'Q\\\' data-title=\\\'Q \\xe2\\x99\\xa0\\\'></span>\\n\\t</div>\\n\\t<!-- single card -->\\n\\n\\t<!-- single card -->\\n\\t<div class=\\\'card\\\'>\\n\\t\\t<span data-value=\\\'K\\\' data-title=\\\'K \\xe2\\x99\\xa0\\\'></span>\\n\\t</div>\\n\\t<!-- single card -->\\t\\t\\t\\t\\n</div>\\n<!-- cards container -->\\n\\n      <script src="\', escape=False)\n    response.write(URL(\'static\',\'js/belot.js\'))\n    response.write(\'"></script>\\n\\n      <script src="\', escape=False)\n    response.write(URL(\'static\',\'js/jq.js\'))\n    response.write(\'"></script>\\n\', escape=False)\n    response.write(\'\\n</div>\', escape=False)\n    response.write(\'\\n    <script src="\', escape=False)\n    response.write(URL(\'static\',\'bootstrap/js/bootstrap.min.js\'))\n    response.write(\'"></script>\\n    <script src="//cdn.datatables.net/1.10.4/js/jquery.dataTables.min.js" type="text/javascript"></script>\\n    <script src="//cdn.datatables.net/plug-ins/9dcbecd42ad/integration/bootstrap/3/dataTables.bootstrap.js" type="text/javascript"></script>\\n</body>\\n</html>\\n\\n\', escape=False)'
p7
sS'snapshot'
p8
(dp9
sS'traceback'
p10
S'None\n'
p11
s.